TN:
SF:/usr/include/c++/9/bits/allocator.h
FN:137,_ZNSaIxEC2Ev
FNDA:200064,_ZNSaIxEC2Ev
FN:137,_ZNSaISt13_Rb_tree_nodeISt4pairIKNSt7__cxx1112basic_stringIcSt11char_traitsIcESaIcEEExEEEC2Ev
FNDA:100032,_ZNSaISt13_Rb_tree_nodeISt4pairIKNSt7__cxx1112basic_stringIcSt11char_traitsIcESaIcEEExEEEC2Ev
FN:137,_ZNSaISt13_Rb_tree_nodeISt4pairIKNSt7__cxx1112basic_stringIcSt11char_traitsIcESaIcEEES6_EEEC2Ev
FNDA:100032,_ZNSaISt13_Rb_tree_nodeISt4pairIKNSt7__cxx1112basic_stringIcSt11char_traitsIcESaIcEEES6_EEEC2Ev
FN:137,_ZNSaISt13_Rb_tree_nodeISt4pairIKNSt7__cxx1112basic_stringIcSt11char_traitsIcESaIcEEESt10shared_ptrI16default_functionEEEEC2Ev
FNDA:1,_ZNSaISt13_Rb_tree_nodeISt4pairIKNSt7__cxx1112basic_stringIcSt11char_traitsIcESaIcEEESt10shared_ptrI16default_functionEEEEC2Ev
FN:137,_ZNSaINSt7__cxx1112basic_stringIcSt11char_traitsIcESaIcEEEEC2Ev
FNDA:1,_ZNSaINSt7__cxx1112basic_stringIcSt11char_traitsIcESaIcEEEEC2Ev
FN:140,_ZNSaINSt7__cxx1112basic_stringIcSt11char_traitsIcESaIcEEEEC2ERKS5_
FNDA:2,_ZNSaINSt7__cxx1112basic_stringIcSt11char_traitsIcESaIcEEEEC2ERKS5_
FN:150,_ZNSaIPxEC2IxEERKSaIT_E
FNDA:400128,_ZNSaIPxEC2IxEERKSaIT_E
FN:152,_ZNSaIPxED2Ev
FNDA:400128,_ZNSaIPxED2Ev
FN:152,_ZNSaIxED2Ev
FNDA:200064,_ZNSaIxED2Ev
FN:152,_ZNSaINSt7__cxx1112basic_stringIcSt11char_traitsIcESaIcEEEED2Ev
FNDA:4,_ZNSaINSt7__cxx1112basic_stringIcSt11char_traitsIcESaIcEEEED2Ev
FN:152,_ZNSaISt13_Rb_tree_nodeISt4pairIKNSt7__cxx1112basic_stringIcSt11char_traitsIcESaIcEEExEEED2Ev
FNDA:100032,_ZNSaISt13_Rb_tree_nodeISt4pairIKNSt7__cxx1112basic_stringIcSt11char_traitsIcESaIcEEExEEED2Ev
FN:152,_ZNSaISt13_Rb_tree_nodeISt4pairIKNSt7__cxx1112basic_stringIcSt11char_traitsIcESaIcEEES6_EEED2Ev
FNDA:100032,_ZNSaISt13_Rb_tree_nodeISt4pairIKNSt7__cxx1112basic_stringIcSt11char_traitsIcESaIcEEES6_EEED2Ev
FN:152,_ZNSaISt13_Rb_tree_nodeISt4pairIKNSt7__cxx1112basic_stringIcSt11char_traitsIcESaIcEEESt10shared_ptrI16default_functionEEEED2Ev
FNDA:1,_ZNSaISt13_Rb_tree_nodeISt4pairIKNSt7__cxx1112basic_stringIcSt11char_traitsIcESaIcEEESt10shared_ptrI16default_functionEEEED2Ev
DA:137,200064
DA:137,100032
DA:137,100032
DA:137,1
DA:137,1
DA:140,2
DA:141,2
DA:150,400128
DA:152,400128
DA:152,200064
DA:152,4
DA:152,100032
DA:152,100032
DA:152,1
end_of_record
SF:/usr/include/c++/9/bits/shared_ptr_base.h
FN:117,_ZNSt16_Sp_counted_baseILN9__gnu_cxx12_Lock_policyE2EEC2Ev
FNDA:21,_ZNSt16_Sp_counted_baseILN9__gnu_cxx12_Lock_policyE2EEC2Ev
FN:121,_ZNSt16_Sp_counted_baseILN9__gnu_cxx12_Lock_policyE2EED0Ev
FNDA:0,_ZNSt16_Sp_counted_baseILN9__gnu_cxx12_Lock_policyE2EED0Ev
FN:121,_ZNSt16_Sp_counted_baseILN9__gnu_cxx12_Lock_policyE2EED2Ev
FNDA:21,_ZNSt16_Sp_counted_baseILN9__gnu_cxx12_Lock_policyE2EED2Ev
FN:131,_ZNSt16_Sp_counted_baseILN9__gnu_cxx12_Lock_policyE2EE10_M_destroyEv
FNDA:0,_ZNSt16_Sp_counted_baseILN9__gnu_cxx12_Lock_policyE2EE10_M_destroyEv
FN:138,_ZNSt16_Sp_counted_baseILN9__gnu_cxx12_Lock_policyE2EE15_M_add_ref_copyEv
FNDA:21,_ZNSt16_Sp_counted_baseILN9__gnu_cxx12_Lock_policyE2EE15_M_add_ref_copyEv
FN:148,_ZNSt16_Sp_counted_baseILN9__gnu_cxx12_Lock_policyE2EE10_M_releaseEv
FNDA:42,_ZNSt16_Sp_counted_baseILN9__gnu_cxx12_Lock_policyE2EE10_M_releaseEv
FN:372,_ZNSt15_Sp_counted_ptrIP4swapLN9__gnu_cxx12_Lock_policyE2EEC2ES1_
FNDA:1,_ZNSt15_Sp_counted_ptrIP4swapLN9__gnu_cxx12_Lock_policyE2EEC2ES1_
FN:372,_ZNSt15_Sp_counted_ptrIP12print_stringLN9__gnu_cxx12_Lock_policyE2EEC2ES1_
FNDA:1,_ZNSt15_Sp_counted_ptrIP12print_stringLN9__gnu_cxx12_Lock_policyE2EEC2ES1_
FN:372,_ZNSt15_Sp_counted_ptrIP3rotLN9__gnu_cxx12_Lock_policyE2EEC2ES1_
FNDA:1,_ZNSt15_Sp_counted_ptrIP3rotLN9__gnu_cxx12_Lock_policyE2EEC2ES1_
FN:372,_ZNSt15_Sp_counted_ptrIP4overLN9__gnu_cxx12_Lock_policyE2EEC2ES1_
FNDA:1,_ZNSt15_Sp_counted_ptrIP4overLN9__gnu_cxx12_Lock_policyE2EEC2ES1_
FN:372,_ZNSt15_Sp_counted_ptrIP4emitLN9__gnu_cxx12_Lock_policyE2EEC2ES1_
FNDA:1,_ZNSt15_Sp_counted_ptrIP4emitLN9__gnu_cxx12_Lock_policyE2EEC2ES1_
FN:372,_ZNSt15_Sp_counted_ptrIP4loopLN9__gnu_cxx12_Lock_policyE2EEC2ES1_
FNDA:1,_ZNSt15_Sp_counted_ptrIP4loopLN9__gnu_cxx12_Lock_policyE2EEC2ES1_
FN:372,_ZNSt15_Sp_counted_ptrIP2crLN9__gnu_cxx12_Lock_policyE2EEC2ES1_
FNDA:1,_ZNSt15_Sp_counted_ptrIP2crLN9__gnu_cxx12_Lock_policyE2EEC2ES1_
FN:372,_ZNSt15_Sp_counted_ptrIP4lessLN9__gnu_cxx12_Lock_policyE2EEC2ES1_
FNDA:1,_ZNSt15_Sp_counted_ptrIP4lessLN9__gnu_cxx12_Lock_policyE2EEC2ES1_
FN:372,_ZNSt15_Sp_counted_ptrIP7greaterLN9__gnu_cxx12_Lock_policyE2EEC2ES1_
FNDA:1,_ZNSt15_Sp_counted_ptrIP7greaterLN9__gnu_cxx12_Lock_policyE2EEC2ES1_
FN:372,_ZNSt15_Sp_counted_ptrIP5equalLN9__gnu_cxx12_Lock_policyE2EEC2ES1_
FNDA:1,_ZNSt15_Sp_counted_ptrIP5equalLN9__gnu_cxx12_Lock_policyE2EEC2ES1_
FN:372,_ZNSt15_Sp_counted_ptrIP20conditional_operatorLN9__gnu_cxx12_Lock_policyE2EEC2ES1_
FNDA:1,_ZNSt15_Sp_counted_ptrIP20conditional_operatorLN9__gnu_cxx12_Lock_policyE2EEC2ES1_
FN:372,_ZNSt15_Sp_counted_ptrIP9referenceLN9__gnu_cxx12_Lock_policyE2EEC2ES1_
FNDA:1,_ZNSt15_Sp_counted_ptrIP9referenceLN9__gnu_cxx12_Lock_policyE2EEC2ES1_
FN:372,_ZNSt15_Sp_counted_ptrIP11dereferenceLN9__gnu_cxx12_Lock_policyE2EEC2ES1_
FNDA:1,_ZNSt15_Sp_counted_ptrIP11dereferenceLN9__gnu_cxx12_Lock_policyE2EEC2ES1_
FN:372,_ZNSt15_Sp_counted_ptrIP5printLN9__gnu_cxx12_Lock_policyE2EEC2ES1_
FNDA:1,_ZNSt15_Sp_counted_ptrIP5printLN9__gnu_cxx12_Lock_policyE2EEC2ES1_
FN:372,_ZNSt15_Sp_counted_ptrIP4dropLN9__gnu_cxx12_Lock_policyE2EEC2ES1_
FNDA:1,_ZNSt15_Sp_counted_ptrIP4dropLN9__gnu_cxx12_Lock_policyE2EEC2ES1_
FN:372,_ZNSt15_Sp_counted_ptrIP4copyLN9__gnu_cxx12_Lock_policyE2EEC2ES1_
FNDA:1,_ZNSt15_Sp_counted_ptrIP4copyLN9__gnu_cxx12_Lock_policyE2EEC2ES1_
FN:372,_ZNSt15_Sp_counted_ptrIP3modLN9__gnu_cxx12_Lock_policyE2EEC2ES1_
FNDA:1,_ZNSt15_Sp_counted_ptrIP3modLN9__gnu_cxx12_Lock_policyE2EEC2ES1_
FN:372,_ZNSt15_Sp_counted_ptrIP5minusLN9__gnu_cxx12_Lock_policyE2EEC2ES1_
FNDA:1,_ZNSt15_Sp_counted_ptrIP5minusLN9__gnu_cxx12_Lock_policyE2EEC2ES1_
FN:372,_ZNSt15_Sp_counted_ptrIP4plusLN9__gnu_cxx12_Lock_policyE2EEC2ES1_
FNDA:1,_ZNSt15_Sp_counted_ptrIP4plusLN9__gnu_cxx12_Lock_policyE2EEC2ES1_
FN:372,_ZNSt15_Sp_counted_ptrIP8multiplyLN9__gnu_cxx12_Lock_policyE2EEC2ES1_
FNDA:1,_ZNSt15_Sp_counted_ptrIP8multiplyLN9__gnu_cxx12_Lock_policyE2EEC2ES1_
FN:372,_ZNSt15_Sp_counted_ptrIP6divideLN9__gnu_cxx12_Lock_policyE2EEC2ES1_
FNDA:1,_ZNSt15_Sp_counted_ptrIP6divideLN9__gnu_cxx12_Lock_policyE2EEC2ES1_
FN:376,_ZNSt15_Sp_counted_ptrIP11dereferenceLN9__gnu_cxx12_Lock_policyE2EE10_M_disposeEv
FNDA:1,_ZNSt15_Sp_counted_ptrIP11dereferenceLN9__gnu_cxx12_Lock_policyE2EE10_M_disposeEv
FN:376,_ZNSt15_Sp_counted_ptrIP9referenceLN9__gnu_cxx12_Lock_policyE2EE10_M_disposeEv
FNDA:1,_ZNSt15_Sp_counted_ptrIP9referenceLN9__gnu_cxx12_Lock_policyE2EE10_M_disposeEv
FN:376,_ZNSt15_Sp_counted_ptrIP12print_stringLN9__gnu_cxx12_Lock_policyE2EE10_M_disposeEv
FNDA:1,_ZNSt15_Sp_counted_ptrIP12print_stringLN9__gnu_cxx12_Lock_policyE2EE10_M_disposeEv
FN:376,_ZNSt15_Sp_counted_ptrIP5equalLN9__gnu_cxx12_Lock_policyE2EE10_M_disposeEv
FNDA:1,_ZNSt15_Sp_counted_ptrIP5equalLN9__gnu_cxx12_Lock_policyE2EE10_M_disposeEv
FN:376,_ZNSt15_Sp_counted_ptrIP2crLN9__gnu_cxx12_Lock_policyE2EE10_M_disposeEv
FNDA:1,_ZNSt15_Sp_counted_ptrIP2crLN9__gnu_cxx12_Lock_policyE2EE10_M_disposeEv
FN:376,_ZNSt15_Sp_counted_ptrIP20conditional_operatorLN9__gnu_cxx12_Lock_policyE2EE10_M_disposeEv
FNDA:1,_ZNSt15_Sp_counted_ptrIP20conditional_operatorLN9__gnu_cxx12_Lock_policyE2EE10_M_disposeEv
FN:376,_ZNSt15_Sp_counted_ptrIP7greaterLN9__gnu_cxx12_Lock_policyE2EE10_M_disposeEv
FNDA:1,_ZNSt15_Sp_counted_ptrIP7greaterLN9__gnu_cxx12_Lock_policyE2EE10_M_disposeEv
FN:376,_ZNSt15_Sp_counted_ptrIP4loopLN9__gnu_cxx12_Lock_policyE2EE10_M_disposeEv
FNDA:1,_ZNSt15_Sp_counted_ptrIP4loopLN9__gnu_cxx12_Lock_policyE2EE10_M_disposeEv
FN:376,_ZNSt15_Sp_counted_ptrIP4lessLN9__gnu_cxx12_Lock_policyE2EE10_M_disposeEv
FNDA:1,_ZNSt15_Sp_counted_ptrIP4lessLN9__gnu_cxx12_Lock_policyE2EE10_M_disposeEv
FN:376,_ZNSt15_Sp_counted_ptrIP4emitLN9__gnu_cxx12_Lock_policyE2EE10_M_disposeEv
FNDA:1,_ZNSt15_Sp_counted_ptrIP4emitLN9__gnu_cxx12_Lock_policyE2EE10_M_disposeEv
FN:376,_ZNSt15_Sp_counted_ptrIP4overLN9__gnu_cxx12_Lock_policyE2EE10_M_disposeEv
FNDA:1,_ZNSt15_Sp_counted_ptrIP4overLN9__gnu_cxx12_Lock_policyE2EE10_M_disposeEv
FN:376,_ZNSt15_Sp_counted_ptrIP3rotLN9__gnu_cxx12_Lock_policyE2EE10_M_disposeEv
FNDA:1,_ZNSt15_Sp_counted_ptrIP3rotLN9__gnu_cxx12_Lock_policyE2EE10_M_disposeEv
FN:376,_ZNSt15_Sp_counted_ptrIP4swapLN9__gnu_cxx12_Lock_policyE2EE10_M_disposeEv
FNDA:1,_ZNSt15_Sp_counted_ptrIP4swapLN9__gnu_cxx12_Lock_policyE2EE10_M_disposeEv
FN:376,_ZNSt15_Sp_counted_ptrIP5printLN9__gnu_cxx12_Lock_policyE2EE10_M_disposeEv
FNDA:1,_ZNSt15_Sp_counted_ptrIP5printLN9__gnu_cxx12_Lock_policyE2EE10_M_disposeEv
FN:376,_ZNSt15_Sp_counted_ptrIP4dropLN9__gnu_cxx12_Lock_policyE2EE10_M_disposeEv
FNDA:1,_ZNSt15_Sp_counted_ptrIP4dropLN9__gnu_cxx12_Lock_policyE2EE10_M_disposeEv
FN:376,_ZNSt15_Sp_counted_ptrIP4copyLN9__gnu_cxx12_Lock_policyE2EE10_M_disposeEv
FNDA:1,_ZNSt15_Sp_counted_ptrIP4copyLN9__gnu_cxx12_Lock_policyE2EE10_M_disposeEv
FN:376,_ZNSt15_Sp_counted_ptrIP3modLN9__gnu_cxx12_Lock_policyE2EE10_M_disposeEv
FNDA:1,_ZNSt15_Sp_counted_ptrIP3modLN9__gnu_cxx12_Lock_policyE2EE10_M_disposeEv
FN:376,_ZNSt15_Sp_counted_ptrIP5minusLN9__gnu_cxx12_Lock_policyE2EE10_M_disposeEv
FNDA:1,_ZNSt15_Sp_counted_ptrIP5minusLN9__gnu_cxx12_Lock_policyE2EE10_M_disposeEv
FN:376,_ZNSt15_Sp_counted_ptrIP4plusLN9__gnu_cxx12_Lock_policyE2EE10_M_disposeEv
FNDA:1,_ZNSt15_Sp_counted_ptrIP4plusLN9__gnu_cxx12_Lock_policyE2EE10_M_disposeEv
FN:376,_ZNSt15_Sp_counted_ptrIP6divideLN9__gnu_cxx12_Lock_policyE2EE10_M_disposeEv
FNDA:1,_ZNSt15_Sp_counted_ptrIP6divideLN9__gnu_cxx12_Lock_policyE2EE10_M_disposeEv
FN:376,_ZNSt15_Sp_counted_ptrIP8multiplyLN9__gnu_cxx12_Lock_policyE2EE10_M_disposeEv
FNDA:1,_ZNSt15_Sp_counted_ptrIP8multiplyLN9__gnu_cxx12_Lock_policyE2EE10_M_disposeEv
FN:380,_ZNSt15_Sp_counted_ptrIP4loopLN9__gnu_cxx12_Lock_policyE2EE10_M_destroyEv
FNDA:1,_ZNSt15_Sp_counted_ptrIP4loopLN9__gnu_cxx12_Lock_policyE2EE10_M_destroyEv
FN:380,_ZNSt15_Sp_counted_ptrIP20conditional_operatorLN9__gnu_cxx12_Lock_policyE2EE10_M_destroyEv
FNDA:1,_ZNSt15_Sp_counted_ptrIP20conditional_operatorLN9__gnu_cxx12_Lock_policyE2EE10_M_destroyEv
FN:380,_ZNSt15_Sp_counted_ptrIP12print_stringLN9__gnu_cxx12_Lock_policyE2EE10_M_destroyEv
FNDA:1,_ZNSt15_Sp_counted_ptrIP12print_stringLN9__gnu_cxx12_Lock_policyE2EE10_M_destroyEv
FN:380,_ZNSt15_Sp_counted_ptrIP8multiplyLN9__gnu_cxx12_Lock_policyE2EE10_M_destroyEv
FNDA:1,_ZNSt15_Sp_counted_ptrIP8multiplyLN9__gnu_cxx12_Lock_policyE2EE10_M_destroyEv
FN:380,_ZNSt15_Sp_counted_ptrIP5minusLN9__gnu_cxx12_Lock_policyE2EE10_M_destroyEv
FNDA:1,_ZNSt15_Sp_counted_ptrIP5minusLN9__gnu_cxx12_Lock_policyE2EE10_M_destroyEv
FN:380,_ZNSt15_Sp_counted_ptrIP4dropLN9__gnu_cxx12_Lock_policyE2EE10_M_destroyEv
FNDA:1,_ZNSt15_Sp_counted_ptrIP4dropLN9__gnu_cxx12_Lock_policyE2EE10_M_destroyEv
FN:380,_ZNSt15_Sp_counted_ptrIP5printLN9__gnu_cxx12_Lock_policyE2EE10_M_destroyEv
FNDA:1,_ZNSt15_Sp_counted_ptrIP5printLN9__gnu_cxx12_Lock_policyE2EE10_M_destroyEv
FN:380,_ZNSt15_Sp_counted_ptrIP4swapLN9__gnu_cxx12_Lock_policyE2EE10_M_destroyEv
FNDA:1,_ZNSt15_Sp_counted_ptrIP4swapLN9__gnu_cxx12_Lock_policyE2EE10_M_destroyEv
FN:380,_ZNSt15_Sp_counted_ptrIP4copyLN9__gnu_cxx12_Lock_policyE2EE10_M_destroyEv
FNDA:1,_ZNSt15_Sp_counted_ptrIP4copyLN9__gnu_cxx12_Lock_policyE2EE10_M_destroyEv
FN:380,_ZNSt15_Sp_counted_ptrIP3rotLN9__gnu_cxx12_Lock_policyE2EE10_M_destroyEv
FNDA:1,_ZNSt15_Sp_counted_ptrIP3rotLN9__gnu_cxx12_Lock_policyE2EE10_M_destroyEv
FN:380,_ZNSt15_Sp_counted_ptrIP4overLN9__gnu_cxx12_Lock_policyE2EE10_M_destroyEv
FNDA:1,_ZNSt15_Sp_counted_ptrIP4overLN9__gnu_cxx12_Lock_policyE2EE10_M_destroyEv
FN:380,_ZNSt15_Sp_counted_ptrIP3modLN9__gnu_cxx12_Lock_policyE2EE10_M_destroyEv
FNDA:1,_ZNSt15_Sp_counted_ptrIP3modLN9__gnu_cxx12_Lock_policyE2EE10_M_destroyEv
FN:380,_ZNSt15_Sp_counted_ptrIP4emitLN9__gnu_cxx12_Lock_policyE2EE10_M_destroyEv
FNDA:1,_ZNSt15_Sp_counted_ptrIP4emitLN9__gnu_cxx12_Lock_policyE2EE10_M_destroyEv
FN:380,_ZNSt15_Sp_counted_ptrIP2crLN9__gnu_cxx12_Lock_policyE2EE10_M_destroyEv
FNDA:1,_ZNSt15_Sp_counted_ptrIP2crLN9__gnu_cxx12_Lock_policyE2EE10_M_destroyEv
FN:380,_ZNSt15_Sp_counted_ptrIP4lessLN9__gnu_cxx12_Lock_policyE2EE10_M_destroyEv
FNDA:1,_ZNSt15_Sp_counted_ptrIP4lessLN9__gnu_cxx12_Lock_policyE2EE10_M_destroyEv
FN:380,_ZNSt15_Sp_counted_ptrIP7greaterLN9__gnu_cxx12_Lock_policyE2EE10_M_destroyEv
FNDA:1,_ZNSt15_Sp_counted_ptrIP7greaterLN9__gnu_cxx12_Lock_policyE2EE10_M_destroyEv
FN:380,_ZNSt15_Sp_counted_ptrIP5equalLN9__gnu_cxx12_Lock_policyE2EE10_M_destroyEv
FNDA:1,_ZNSt15_Sp_counted_ptrIP5equalLN9__gnu_cxx12_Lock_policyE2EE10_M_destroyEv
FN:380,_ZNSt15_Sp_counted_ptrIP11dereferenceLN9__gnu_cxx12_Lock_policyE2EE10_M_destroyEv
FNDA:1,_ZNSt15_Sp_counted_ptrIP11dereferenceLN9__gnu_cxx12_Lock_policyE2EE10_M_destroyEv
FN:380,_ZNSt15_Sp_counted_ptrIP6divideLN9__gnu_cxx12_Lock_policyE2EE10_M_destroyEv
FNDA:1,_ZNSt15_Sp_counted_ptrIP6divideLN9__gnu_cxx12_Lock_policyE2EE10_M_destroyEv
FN:380,_ZNSt15_Sp_counted_ptrIP9referenceLN9__gnu_cxx12_Lock_policyE2EE10_M_destroyEv
FNDA:1,_ZNSt15_Sp_counted_ptrIP9referenceLN9__gnu_cxx12_Lock_policyE2EE10_M_destroyEv
FN:380,_ZNSt15_Sp_counted_ptrIP4plusLN9__gnu_cxx12_Lock_policyE2EE10_M_destroyEv
FNDA:1,_ZNSt15_Sp_counted_ptrIP4plusLN9__gnu_cxx12_Lock_policyE2EE10_M_destroyEv
FN:384,_ZNSt15_Sp_counted_ptrIP5minusLN9__gnu_cxx12_Lock_policyE2EE14_M_get_deleterERKSt9type_info
FNDA:0,_ZNSt15_Sp_counted_ptrIP5minusLN9__gnu_cxx12_Lock_policyE2EE14_M_get_deleterERKSt9type_info
FN:384,_ZNSt15_Sp_counted_ptrIP11dereferenceLN9__gnu_cxx12_Lock_policyE2EE14_M_get_deleterERKSt9type_info
FNDA:0,_ZNSt15_Sp_counted_ptrIP11dereferenceLN9__gnu_cxx12_Lock_policyE2EE14_M_get_deleterERKSt9type_info
FN:384,_ZNSt15_Sp_counted_ptrIP3modLN9__gnu_cxx12_Lock_policyE2EE14_M_get_deleterERKSt9type_info
FNDA:0,_ZNSt15_Sp_counted_ptrIP3modLN9__gnu_cxx12_Lock_policyE2EE14_M_get_deleterERKSt9type_info
FN:384,_ZNSt15_Sp_counted_ptrIP8multiplyLN9__gnu_cxx12_Lock_policyE2EE14_M_get_deleterERKSt9type_info
FNDA:0,_ZNSt15_Sp_counted_ptrIP8multiplyLN9__gnu_cxx12_Lock_policyE2EE14_M_get_deleterERKSt9type_info
FN:384,_ZNSt15_Sp_counted_ptrIP6divideLN9__gnu_cxx12_Lock_policyE2EE14_M_get_deleterERKSt9type_info
FNDA:0,_ZNSt15_Sp_counted_ptrIP6divideLN9__gnu_cxx12_Lock_policyE2EE14_M_get_deleterERKSt9type_info
FN:384,_ZNSt15_Sp_counted_ptrIP4copyLN9__gnu_cxx12_Lock_policyE2EE14_M_get_deleterERKSt9type_info
FNDA:0,_ZNSt15_Sp_counted_ptrIP4copyLN9__gnu_cxx12_Lock_policyE2EE14_M_get_deleterERKSt9type_info
FN:384,_ZNSt15_Sp_counted_ptrIP4dropLN9__gnu_cxx12_Lock_policyE2EE14_M_get_deleterERKSt9type_info
FNDA:0,_ZNSt15_Sp_counted_ptrIP4dropLN9__gnu_cxx12_Lock_policyE2EE14_M_get_deleterERKSt9type_info
FN:384,_ZNSt15_Sp_counted_ptrIP4plusLN9__gnu_cxx12_Lock_policyE2EE14_M_get_deleterERKSt9type_info
FNDA:0,_ZNSt15_Sp_counted_ptrIP4plusLN9__gnu_cxx12_Lock_policyE2EE14_M_get_deleterERKSt9type_info
FN:384,_ZNSt15_Sp_counted_ptrIP4swapLN9__gnu_cxx12_Lock_policyE2EE14_M_get_deleterERKSt9type_info
FNDA:0,_ZNSt15_Sp_counted_ptrIP4swapLN9__gnu_cxx12_Lock_policyE2EE14_M_get_deleterERKSt9type_info
FN:384,_ZNSt15_Sp_counted_ptrIP12print_stringLN9__gnu_cxx12_Lock_policyE2EE14_M_get_deleterERKSt9type_info
FNDA:0,_ZNSt15_Sp_counted_ptrIP12print_stringLN9__gnu_cxx12_Lock_policyE2EE14_M_get_deleterERKSt9type_info
FN:384,_ZNSt15_Sp_counted_ptrIP9referenceLN9__gnu_cxx12_Lock_policyE2EE14_M_get_deleterERKSt9type_info
FNDA:0,_ZNSt15_Sp_counted_ptrIP9referenceLN9__gnu_cxx12_Lock_policyE2EE14_M_get_deleterERKSt9type_info
FN:384,_ZNSt15_Sp_counted_ptrIP20conditional_operatorLN9__gnu_cxx12_Lock_policyE2EE14_M_get_deleterERKSt9type_info
FNDA:0,_ZNSt15_Sp_counted_ptrIP20conditional_operatorLN9__gnu_cxx12_Lock_policyE2EE14_M_get_deleterERKSt9type_info
FN:384,_ZNSt15_Sp_counted_ptrIP5equalLN9__gnu_cxx12_Lock_policyE2EE14_M_get_deleterERKSt9type_info
FNDA:0,_ZNSt15_Sp_counted_ptrIP5equalLN9__gnu_cxx12_Lock_policyE2EE14_M_get_deleterERKSt9type_info
FN:384,_ZNSt15_Sp_counted_ptrIP4loopLN9__gnu_cxx12_Lock_policyE2EE14_M_get_deleterERKSt9type_info
FNDA:0,_ZNSt15_Sp_counted_ptrIP4loopLN9__gnu_cxx12_Lock_policyE2EE14_M_get_deleterERKSt9type_info
FN:384,_ZNSt15_Sp_counted_ptrIP7greaterLN9__gnu_cxx12_Lock_policyE2EE14_M_get_deleterERKSt9type_info
FNDA:0,_ZNSt15_Sp_counted_ptrIP7greaterLN9__gnu_cxx12_Lock_policyE2EE14_M_get_deleterERKSt9type_info
FN:384,_ZNSt15_Sp_counted_ptrIP4lessLN9__gnu_cxx12_Lock_policyE2EE14_M_get_deleterERKSt9type_info
FNDA:0,_ZNSt15_Sp_counted_ptrIP4lessLN9__gnu_cxx12_Lock_policyE2EE14_M_get_deleterERKSt9type_info
FN:384,_ZNSt15_Sp_counted_ptrIP2crLN9__gnu_cxx12_Lock_policyE2EE14_M_get_deleterERKSt9type_info
FNDA:0,_ZNSt15_Sp_counted_ptrIP2crLN9__gnu_cxx12_Lock_policyE2EE14_M_get_deleterERKSt9type_info
FN:384,_ZNSt15_Sp_counted_ptrIP4emitLN9__gnu_cxx12_Lock_policyE2EE14_M_get_deleterERKSt9type_info
FNDA:0,_ZNSt15_Sp_counted_ptrIP4emitLN9__gnu_cxx12_Lock_policyE2EE14_M_get_deleterERKSt9type_info
FN:384,_ZNSt15_Sp_counted_ptrIP4overLN9__gnu_cxx12_Lock_policyE2EE14_M_get_deleterERKSt9type_info
FNDA:0,_ZNSt15_Sp_counted_ptrIP4overLN9__gnu_cxx12_Lock_policyE2EE14_M_get_deleterERKSt9type_info
FN:384,_ZNSt15_Sp_counted_ptrIP3rotLN9__gnu_cxx12_Lock_policyE2EE14_M_get_deleterERKSt9type_info
FNDA:0,_ZNSt15_Sp_counted_ptrIP3rotLN9__gnu_cxx12_Lock_policyE2EE14_M_get_deleterERKSt9type_info
FN:384,_ZNSt15_Sp_counted_ptrIP5printLN9__gnu_cxx12_Lock_policyE2EE14_M_get_deleterERKSt9type_info
FNDA:0,_ZNSt15_Sp_counted_ptrIP5printLN9__gnu_cxx12_Lock_policyE2EE14_M_get_deleterERKSt9type_info
FN:616,_ZNSt14__shared_countILN9__gnu_cxx12_Lock_policyE2EEC2Ev
FNDA:42,_ZNSt14__shared_countILN9__gnu_cxx12_Lock_policyE2EEC2Ev
FN:621,_ZNSt14__shared_countILN9__gnu_cxx12_Lock_policyE2EEC2IP11dereferenceEET_
FNDA:1,_ZNSt14__shared_countILN9__gnu_cxx12_Lock_policyE2EEC2IP11dereferenceEET_
FN:621,_ZNSt14__shared_countILN9__gnu_cxx12_Lock_policyE2EEC2IP8multiplyEET_
FNDA:1,_ZNSt14__shared_countILN9__gnu_cxx12_Lock_policyE2EEC2IP8multiplyEET_
FN:621,_ZNSt14__shared_countILN9__gnu_cxx12_Lock_policyE2EEC2IP6divideEET_
FNDA:1,_ZNSt14__shared_countILN9__gnu_cxx12_Lock_policyE2EEC2IP6divideEET_
FN:621,_ZNSt14__shared_countILN9__gnu_cxx12_Lock_policyE2EEC2IP4plusEET_
FNDA:1,_ZNSt14__shared_countILN9__gnu_cxx12_Lock_policyE2EEC2IP4plusEET_
FN:621,_ZNSt14__shared_countILN9__gnu_cxx12_Lock_policyE2EEC2IP5minusEET_
FNDA:1,_ZNSt14__shared_countILN9__gnu_cxx12_Lock_policyE2EEC2IP5minusEET_
FN:621,_ZNSt14__shared_countILN9__gnu_cxx12_Lock_policyE2EEC2IP3modEET_
FNDA:1,_ZNSt14__shared_countILN9__gnu_cxx12_Lock_policyE2EEC2IP3modEET_
FN:621,_ZNSt14__shared_countILN9__gnu_cxx12_Lock_policyE2EEC2IP4copyEET_
FNDA:1,_ZNSt14__shared_countILN9__gnu_cxx12_Lock_policyE2EEC2IP4copyEET_
FN:621,_ZNSt14__shared_countILN9__gnu_cxx12_Lock_policyE2EEC2IP4dropEET_
FNDA:1,_ZNSt14__shared_countILN9__gnu_cxx12_Lock_policyE2EEC2IP4dropEET_
FN:621,_ZNSt14__shared_countILN9__gnu_cxx12_Lock_policyE2EEC2IP4swapEET_
FNDA:1,_ZNSt14__shared_countILN9__gnu_cxx12_Lock_policyE2EEC2IP4swapEET_
FN:621,_ZNSt14__shared_countILN9__gnu_cxx12_Lock_policyE2EEC2IP4loopEET_
FNDA:1,_ZNSt14__shared_countILN9__gnu_cxx12_Lock_policyE2EEC2IP4loopEET_
FN:621,_ZNSt14__shared_countILN9__gnu_cxx12_Lock_policyE2EEC2IP5printEET_
FNDA:1,_ZNSt14__shared_countILN9__gnu_cxx12_Lock_policyE2EEC2IP5printEET_
FN:621,_ZNSt14__shared_countILN9__gnu_cxx12_Lock_policyE2EEC2IP20conditional_operatorEET_
FNDA:1,_ZNSt14__shared_countILN9__gnu_cxx12_Lock_policyE2EEC2IP20conditional_operatorEET_
FN:621,_ZNSt14__shared_countILN9__gnu_cxx12_Lock_policyE2EEC2IP12print_stringEET_
FNDA:1,_ZNSt14__shared_countILN9__gnu_cxx12_Lock_policyE2EEC2IP12print_stringEET_
FN:621,_ZNSt14__shared_countILN9__gnu_cxx12_Lock_policyE2EEC2IP9referenceEET_
FNDA:1,_ZNSt14__shared_countILN9__gnu_cxx12_Lock_policyE2EEC2IP9referenceEET_
FN:621,_ZNSt14__shared_countILN9__gnu_cxx12_Lock_policyE2EEC2IP5equalEET_
FNDA:1,_ZNSt14__shared_countILN9__gnu_cxx12_Lock_policyE2EEC2IP5equalEET_
FN:621,_ZNSt14__shared_countILN9__gnu_cxx12_Lock_policyE2EEC2IP7greaterEET_
FNDA:1,_ZNSt14__shared_countILN9__gnu_cxx12_Lock_policyE2EEC2IP7greaterEET_
FN:621,_ZNSt14__shared_countILN9__gnu_cxx12_Lock_policyE2EEC2IP4lessEET_
FNDA:1,_ZNSt14__shared_countILN9__gnu_cxx12_Lock_policyE2EEC2IP4lessEET_
FN:621,_ZNSt14__shared_countILN9__gnu_cxx12_Lock_policyE2EEC2IP2crEET_
FNDA:1,_ZNSt14__shared_countILN9__gnu_cxx12_Lock_policyE2EEC2IP2crEET_
FN:621,_ZNSt14__shared_countILN9__gnu_cxx12_Lock_policyE2EEC2IP4emitEET_
FNDA:1,_ZNSt14__shared_countILN9__gnu_cxx12_Lock_policyE2EEC2IP4emitEET_
FN:621,_ZNSt14__shared_countILN9__gnu_cxx12_Lock_policyE2EEC2IP4overEET_
FNDA:1,_ZNSt14__shared_countILN9__gnu_cxx12_Lock_policyE2EEC2IP4overEET_
FN:621,_ZNSt14__shared_countILN9__gnu_cxx12_Lock_policyE2EEC2IP3rotEET_
FNDA:1,_ZNSt14__shared_countILN9__gnu_cxx12_Lock_policyE2EEC2IP3rotEET_
FN:635,_ZNSt14__shared_countILN9__gnu_cxx12_Lock_policyE2EEC2IP4overEET_St17integral_constantIbLb0EE
FNDA:1,_ZNSt14__shared_countILN9__gnu_cxx12_Lock_policyE2EEC2IP4overEET_St17integral_constantIbLb0EE
FN:635,_ZNSt14__shared_countILN9__gnu_cxx12_Lock_policyE2EEC2IP4emitEET_St17integral_constantIbLb0EE
FNDA:1,_ZNSt14__shared_countILN9__gnu_cxx12_Lock_policyE2EEC2IP4emitEET_St17integral_constantIbLb0EE
FN:635,_ZNSt14__shared_countILN9__gnu_cxx12_Lock_policyE2EEC2IP3rotEET_St17integral_constantIbLb0EE
FNDA:1,_ZNSt14__shared_countILN9__gnu_cxx12_Lock_policyE2EEC2IP3rotEET_St17integral_constantIbLb0EE
FN:635,_ZNSt14__shared_countILN9__gnu_cxx12_Lock_policyE2EEC2IP4swapEET_St17integral_constantIbLb0EE
FNDA:1,_ZNSt14__shared_countILN9__gnu_cxx12_Lock_policyE2EEC2IP4swapEET_St17integral_constantIbLb0EE
FN:635,_ZNSt14__shared_countILN9__gnu_cxx12_Lock_policyE2EEC2IP5printEET_St17integral_constantIbLb0EE
FNDA:1,_ZNSt14__shared_countILN9__gnu_cxx12_Lock_policyE2EEC2IP5printEET_St17integral_constantIbLb0EE
FN:635,_ZNSt14__shared_countILN9__gnu_cxx12_Lock_policyE2EEC2IP4dropEET_St17integral_constantIbLb0EE
FNDA:1,_ZNSt14__shared_countILN9__gnu_cxx12_Lock_policyE2EEC2IP4dropEET_St17integral_constantIbLb0EE
FN:635,_ZNSt14__shared_countILN9__gnu_cxx12_Lock_policyE2EEC2IP4copyEET_St17integral_constantIbLb0EE
FNDA:1,_ZNSt14__shared_countILN9__gnu_cxx12_Lock_policyE2EEC2IP4copyEET_St17integral_constantIbLb0EE
FN:635,_ZNSt14__shared_countILN9__gnu_cxx12_Lock_policyE2EEC2IP3modEET_St17integral_constantIbLb0EE
FNDA:1,_ZNSt14__shared_countILN9__gnu_cxx12_Lock_policyE2EEC2IP3modEET_St17integral_constantIbLb0EE
FN:635,_ZNSt14__shared_countILN9__gnu_cxx12_Lock_policyE2EEC2IP5minusEET_St17integral_constantIbLb0EE
FNDA:1,_ZNSt14__shared_countILN9__gnu_cxx12_Lock_policyE2EEC2IP5minusEET_St17integral_constantIbLb0EE
FN:635,_ZNSt14__shared_countILN9__gnu_cxx12_Lock_policyE2EEC2IP4plusEET_St17integral_constantIbLb0EE
FNDA:1,_ZNSt14__shared_countILN9__gnu_cxx12_Lock_policyE2EEC2IP4plusEET_St17integral_constantIbLb0EE
FN:635,_ZNSt14__shared_countILN9__gnu_cxx12_Lock_policyE2EEC2IP6divideEET_St17integral_constantIbLb0EE
FNDA:1,_ZNSt14__shared_countILN9__gnu_cxx12_Lock_policyE2EEC2IP6divideEET_St17integral_constantIbLb0EE
FN:635,_ZNSt14__shared_countILN9__gnu_cxx12_Lock_policyE2EEC2IP8multiplyEET_St17integral_constantIbLb0EE
FNDA:1,_ZNSt14__shared_countILN9__gnu_cxx12_Lock_policyE2EEC2IP8multiplyEET_St17integral_constantIbLb0EE
FN:635,_ZNSt14__shared_countILN9__gnu_cxx12_Lock_policyE2EEC2IP11dereferenceEET_St17integral_constantIbLb0EE
FNDA:1,_ZNSt14__shared_countILN9__gnu_cxx12_Lock_policyE2EEC2IP11dereferenceEET_St17integral_constantIbLb0EE
FN:635,_ZNSt14__shared_countILN9__gnu_cxx12_Lock_policyE2EEC2IP7greaterEET_St17integral_constantIbLb0EE
FNDA:1,_ZNSt14__shared_countILN9__gnu_cxx12_Lock_policyE2EEC2IP7greaterEET_St17integral_constantIbLb0EE
FN:635,_ZNSt14__shared_countILN9__gnu_cxx12_Lock_policyE2EEC2IP4loopEET_St17integral_constantIbLb0EE
FNDA:1,_ZNSt14__shared_countILN9__gnu_cxx12_Lock_policyE2EEC2IP4loopEET_St17integral_constantIbLb0EE
FN:635,_ZNSt14__shared_countILN9__gnu_cxx12_Lock_policyE2EEC2IP9referenceEET_St17integral_constantIbLb0EE
FNDA:1,_ZNSt14__shared_countILN9__gnu_cxx12_Lock_policyE2EEC2IP9referenceEET_St17integral_constantIbLb0EE
FN:635,_ZNSt14__shared_countILN9__gnu_cxx12_Lock_policyE2EEC2IP12print_stringEET_St17integral_constantIbLb0EE
FNDA:1,_ZNSt14__shared_countILN9__gnu_cxx12_Lock_policyE2EEC2IP12print_stringEET_St17integral_constantIbLb0EE
FN:635,_ZNSt14__shared_countILN9__gnu_cxx12_Lock_policyE2EEC2IP5equalEET_St17integral_constantIbLb0EE
FNDA:1,_ZNSt14__shared_countILN9__gnu_cxx12_Lock_policyE2EEC2IP5equalEET_St17integral_constantIbLb0EE
FN:635,_ZNSt14__shared_countILN9__gnu_cxx12_Lock_policyE2EEC2IP20conditional_operatorEET_St17integral_constantIbLb0EE
FNDA:1,_ZNSt14__shared_countILN9__gnu_cxx12_Lock_policyE2EEC2IP20conditional_operatorEET_St17integral_constantIbLb0EE
FN:635,_ZNSt14__shared_countILN9__gnu_cxx12_Lock_policyE2EEC2IP4lessEET_St17integral_constantIbLb0EE
FNDA:1,_ZNSt14__shared_countILN9__gnu_cxx12_Lock_policyE2EEC2IP4lessEET_St17integral_constantIbLb0EE
FN:635,_ZNSt14__shared_countILN9__gnu_cxx12_Lock_policyE2EEC2IP2crEET_St17integral_constantIbLb0EE
FNDA:1,_ZNSt14__shared_countILN9__gnu_cxx12_Lock_policyE2EEC2IP2crEET_St17integral_constantIbLb0EE
FN:727,_ZNSt14__shared_countILN9__gnu_cxx12_Lock_policyE2EED2Ev
FNDA:84,_ZNSt14__shared_countILN9__gnu_cxx12_Lock_policyE2EED2Ev
FN:733,_ZNSt14__shared_countILN9__gnu_cxx12_Lock_policyE2EEC2ERKS2_
FNDA:21,_ZNSt14__shared_countILN9__gnu_cxx12_Lock_policyE2EEC2ERKS2_
FN:756,_ZNSt14__shared_countILN9__gnu_cxx12_Lock_policyE2EE7_M_swapERS2_
FNDA:42,_ZNSt14__shared_countILN9__gnu_cxx12_Lock_policyE2EE7_M_swapERS2_
FN:1012,_ZNKSt19__shared_ptr_accessI16default_functionLN9__gnu_cxx12_Lock_policyE2ELb0ELb0EEptEv
FNDA:100119,_ZNKSt19__shared_ptr_accessI16default_functionLN9__gnu_cxx12_Lock_policyE2ELb0ELb0EEptEv
FN:1020,_ZNKSt19__shared_ptr_accessI16default_functionLN9__gnu_cxx12_Lock_policyE2ELb0ELb0EE6_M_getEv
FNDA:100119,_ZNKSt19__shared_ptr_accessI16default_functionLN9__gnu_cxx12_Lock_policyE2ELb0ELb0EE6_M_getEv
FN:1124,_ZNSt12__shared_ptrI9referenceLN9__gnu_cxx12_Lock_policyE2EEC2IS0_vEEPT_
FNDA:1,_ZNSt12__shared_ptrI9referenceLN9__gnu_cxx12_Lock_policyE2EEC2IS0_vEEPT_
FN:1124,_ZNSt12__shared_ptrI5equalLN9__gnu_cxx12_Lock_policyE2EEC2IS0_vEEPT_
FNDA:1,_ZNSt12__shared_ptrI5equalLN9__gnu_cxx12_Lock_policyE2EEC2IS0_vEEPT_
FN:1124,_ZNSt12__shared_ptrI12print_stringLN9__gnu_cxx12_Lock_policyE2EEC2IS0_vEEPT_
FNDA:1,_ZNSt12__shared_ptrI12print_stringLN9__gnu_cxx12_Lock_policyE2EEC2IS0_vEEPT_
FN:1124,_ZNSt12__shared_ptrI11dereferenceLN9__gnu_cxx12_Lock_policyE2EEC2IS0_vEEPT_
FNDA:1,_ZNSt12__shared_ptrI11dereferenceLN9__gnu_cxx12_Lock_policyE2EEC2IS0_vEEPT_
FN:1124,_ZNSt12__shared_ptrI7greaterLN9__gnu_cxx12_Lock_policyE2EEC2IS0_vEEPT_
FNDA:1,_ZNSt12__shared_ptrI7greaterLN9__gnu_cxx12_Lock_policyE2EEC2IS0_vEEPT_
FN:1124,_ZNSt12__shared_ptrI4dropLN9__gnu_cxx12_Lock_policyE2EEC2IS0_vEEPT_
FNDA:1,_ZNSt12__shared_ptrI4dropLN9__gnu_cxx12_Lock_policyE2EEC2IS0_vEEPT_
FN:1124,_ZNSt12__shared_ptrI4lessLN9__gnu_cxx12_Lock_policyE2EEC2IS0_vEEPT_
FNDA:1,_ZNSt12__shared_ptrI4lessLN9__gnu_cxx12_Lock_policyE2EEC2IS0_vEEPT_
FN:1124,_ZNSt12__shared_ptrI2crLN9__gnu_cxx12_Lock_policyE2EEC2IS0_vEEPT_
FNDA:1,_ZNSt12__shared_ptrI2crLN9__gnu_cxx12_Lock_policyE2EEC2IS0_vEEPT_
FN:1124,_ZNSt12__shared_ptrI8multiplyLN9__gnu_cxx12_Lock_policyE2EEC2IS0_vEEPT_
FNDA:1,_ZNSt12__shared_ptrI8multiplyLN9__gnu_cxx12_Lock_policyE2EEC2IS0_vEEPT_
FN:1124,_ZNSt12__shared_ptrI4emitLN9__gnu_cxx12_Lock_policyE2EEC2IS0_vEEPT_
FNDA:1,_ZNSt12__shared_ptrI4emitLN9__gnu_cxx12_Lock_policyE2EEC2IS0_vEEPT_
FN:1124,_ZNSt12__shared_ptrI6divideLN9__gnu_cxx12_Lock_policyE2EEC2IS0_vEEPT_
FNDA:1,_ZNSt12__shared_ptrI6divideLN9__gnu_cxx12_Lock_policyE2EEC2IS0_vEEPT_
FN:1124,_ZNSt12__shared_ptrI4overLN9__gnu_cxx12_Lock_policyE2EEC2IS0_vEEPT_
FNDA:1,_ZNSt12__shared_ptrI4overLN9__gnu_cxx12_Lock_policyE2EEC2IS0_vEEPT_
FN:1124,_ZNSt12__shared_ptrI4plusLN9__gnu_cxx12_Lock_policyE2EEC2IS0_vEEPT_
FNDA:1,_ZNSt12__shared_ptrI4plusLN9__gnu_cxx12_Lock_policyE2EEC2IS0_vEEPT_
FN:1124,_ZNSt12__shared_ptrI3rotLN9__gnu_cxx12_Lock_policyE2EEC2IS0_vEEPT_
FNDA:1,_ZNSt12__shared_ptrI3rotLN9__gnu_cxx12_Lock_policyE2EEC2IS0_vEEPT_
FN:1124,_ZNSt12__shared_ptrI5minusLN9__gnu_cxx12_Lock_policyE2EEC2IS0_vEEPT_
FNDA:1,_ZNSt12__shared_ptrI5minusLN9__gnu_cxx12_Lock_policyE2EEC2IS0_vEEPT_
FN:1124,_ZNSt12__shared_ptrI4swapLN9__gnu_cxx12_Lock_policyE2EEC2IS0_vEEPT_
FNDA:1,_ZNSt12__shared_ptrI4swapLN9__gnu_cxx12_Lock_policyE2EEC2IS0_vEEPT_
FN:1124,_ZNSt12__shared_ptrI3modLN9__gnu_cxx12_Lock_policyE2EEC2IS0_vEEPT_
FNDA:1,_ZNSt12__shared_ptrI3modLN9__gnu_cxx12_Lock_policyE2EEC2IS0_vEEPT_
FN:1124,_ZNSt12__shared_ptrI5printLN9__gnu_cxx12_Lock_policyE2EEC2IS0_vEEPT_
FNDA:1,_ZNSt12__shared_ptrI5printLN9__gnu_cxx12_Lock_policyE2EEC2IS0_vEEPT_
FN:1124,_ZNSt12__shared_ptrI4copyLN9__gnu_cxx12_Lock_policyE2EEC2IS0_vEEPT_
FNDA:1,_ZNSt12__shared_ptrI4copyLN9__gnu_cxx12_Lock_policyE2EEC2IS0_vEEPT_
FN:1124,_ZNSt12__shared_ptrI20conditional_operatorLN9__gnu_cxx12_Lock_policyE2EEC2IS0_vEEPT_
FNDA:1,_ZNSt12__shared_ptrI20conditional_operatorLN9__gnu_cxx12_Lock_policyE2EEC2IS0_vEEPT_
FN:1124,_ZNSt12__shared_ptrI4loopLN9__gnu_cxx12_Lock_policyE2EEC2IS0_vEEPT_
FNDA:1,_ZNSt12__shared_ptrI4loopLN9__gnu_cxx12_Lock_policyE2EEC2IS0_vEEPT_
FN:1167,_ZNSt12__shared_ptrI16default_functionLN9__gnu_cxx12_Lock_policyE2EEC2ERKS3_
FNDA:21,_ZNSt12__shared_ptrI16default_functionLN9__gnu_cxx12_Lock_policyE2EEC2ERKS3_
FN:1169,_ZNSt12__shared_ptrI4overLN9__gnu_cxx12_Lock_policyE2EED2Ev
FNDA:1,_ZNSt12__shared_ptrI4overLN9__gnu_cxx12_Lock_policyE2EED2Ev
FN:1169,_ZNSt12__shared_ptrI16default_functionLN9__gnu_cxx12_Lock_policyE2EED2Ev
FNDA:63,_ZNSt12__shared_ptrI16default_functionLN9__gnu_cxx12_Lock_policyE2EED2Ev
FN:1169,_ZNSt12__shared_ptrI8multiplyLN9__gnu_cxx12_Lock_policyE2EED2Ev
FNDA:1,_ZNSt12__shared_ptrI8multiplyLN9__gnu_cxx12_Lock_policyE2EED2Ev
FN:1169,_ZNSt12__shared_ptrI6divideLN9__gnu_cxx12_Lock_policyE2EED2Ev
FNDA:1,_ZNSt12__shared_ptrI6divideLN9__gnu_cxx12_Lock_policyE2EED2Ev
FN:1169,_ZNSt12__shared_ptrI4plusLN9__gnu_cxx12_Lock_policyE2EED2Ev
FNDA:1,_ZNSt12__shared_ptrI4plusLN9__gnu_cxx12_Lock_policyE2EED2Ev
FN:1169,_ZNSt12__shared_ptrI5minusLN9__gnu_cxx12_Lock_policyE2EED2Ev
FNDA:1,_ZNSt12__shared_ptrI5minusLN9__gnu_cxx12_Lock_policyE2EED2Ev
FN:1169,_ZNSt12__shared_ptrI3modLN9__gnu_cxx12_Lock_policyE2EED2Ev
FNDA:1,_ZNSt12__shared_ptrI3modLN9__gnu_cxx12_Lock_policyE2EED2Ev
FN:1169,_ZNSt12__shared_ptrI4copyLN9__gnu_cxx12_Lock_policyE2EED2Ev
FNDA:1,_ZNSt12__shared_ptrI4copyLN9__gnu_cxx12_Lock_policyE2EED2Ev
FN:1169,_ZNSt12__shared_ptrI4dropLN9__gnu_cxx12_Lock_policyE2EED2Ev
FNDA:1,_ZNSt12__shared_ptrI4dropLN9__gnu_cxx12_Lock_policyE2EED2Ev
FN:1169,_ZNSt12__shared_ptrI5printLN9__gnu_cxx12_Lock_policyE2EED2Ev
FNDA:1,_ZNSt12__shared_ptrI5printLN9__gnu_cxx12_Lock_policyE2EED2Ev
FN:1169,_ZNSt12__shared_ptrI4swapLN9__gnu_cxx12_Lock_policyE2EED2Ev
FNDA:1,_ZNSt12__shared_ptrI4swapLN9__gnu_cxx12_Lock_policyE2EED2Ev
FN:1169,_ZNSt12__shared_ptrI3rotLN9__gnu_cxx12_Lock_policyE2EED2Ev
FNDA:1,_ZNSt12__shared_ptrI3rotLN9__gnu_cxx12_Lock_policyE2EED2Ev
FN:1169,_ZNSt12__shared_ptrI11dereferenceLN9__gnu_cxx12_Lock_policyE2EED2Ev
FNDA:1,_ZNSt12__shared_ptrI11dereferenceLN9__gnu_cxx12_Lock_policyE2EED2Ev
FN:1169,_ZNSt12__shared_ptrI4emitLN9__gnu_cxx12_Lock_policyE2EED2Ev
FNDA:1,_ZNSt12__shared_ptrI4emitLN9__gnu_cxx12_Lock_policyE2EED2Ev
FN:1169,_ZNSt12__shared_ptrI2crLN9__gnu_cxx12_Lock_policyE2EED2Ev
FNDA:1,_ZNSt12__shared_ptrI2crLN9__gnu_cxx12_Lock_policyE2EED2Ev
FN:1169,_ZNSt12__shared_ptrI4lessLN9__gnu_cxx12_Lock_policyE2EED2Ev
FNDA:1,_ZNSt12__shared_ptrI4lessLN9__gnu_cxx12_Lock_policyE2EED2Ev
FN:1169,_ZNSt12__shared_ptrI7greaterLN9__gnu_cxx12_Lock_policyE2EED2Ev
FNDA:1,_ZNSt12__shared_ptrI7greaterLN9__gnu_cxx12_Lock_policyE2EED2Ev
FN:1169,_ZNSt12__shared_ptrI5equalLN9__gnu_cxx12_Lock_policyE2EED2Ev
FNDA:1,_ZNSt12__shared_ptrI5equalLN9__gnu_cxx12_Lock_policyE2EED2Ev
FN:1169,_ZNSt12__shared_ptrI4loopLN9__gnu_cxx12_Lock_policyE2EED2Ev
FNDA:1,_ZNSt12__shared_ptrI4loopLN9__gnu_cxx12_Lock_policyE2EED2Ev
FN:1169,_ZNSt12__shared_ptrI9referenceLN9__gnu_cxx12_Lock_policyE2EED2Ev
FNDA:1,_ZNSt12__shared_ptrI9referenceLN9__gnu_cxx12_Lock_policyE2EED2Ev
FN:1169,_ZNSt12__shared_ptrI20conditional_operatorLN9__gnu_cxx12_Lock_policyE2EED2Ev
FNDA:1,_ZNSt12__shared_ptrI20conditional_operatorLN9__gnu_cxx12_Lock_policyE2EED2Ev
FN:1169,_ZNSt12__shared_ptrI12print_stringLN9__gnu_cxx12_Lock_policyE2EED2Ev
FNDA:1,_ZNSt12__shared_ptrI12print_stringLN9__gnu_cxx12_Lock_policyE2EED2Ev
FN:1176,_ZNSt12__shared_ptrI16default_functionLN9__gnu_cxx12_Lock_policyE2EEC2EOS3_
FNDA:21,_ZNSt12__shared_ptrI16default_functionLN9__gnu_cxx12_Lock_policyE2EEC2EOS3_
FN:1184,_ZNSt12__shared_ptrI16default_functionLN9__gnu_cxx12_Lock_policyE2EEC2I4dropvEEOS_IT_LS2_2EE
FNDA:1,_ZNSt12__shared_ptrI16default_functionLN9__gnu_cxx12_Lock_policyE2EEC2I4dropvEEOS_IT_LS2_2EE
FN:1184,_ZNSt12__shared_ptrI16default_functionLN9__gnu_cxx12_Lock_policyE2EEC2I4loopvEEOS_IT_LS2_2EE
FNDA:1,_ZNSt12__shared_ptrI16default_functionLN9__gnu_cxx12_Lock_policyE2EEC2I4loopvEEOS_IT_LS2_2EE
FN:1184,_ZNSt12__shared_ptrI16default_functionLN9__gnu_cxx12_Lock_policyE2EEC2I20conditional_operatorvEEOS_IT_LS2_2EE
FNDA:1,_ZNSt12__shared_ptrI16default_functionLN9__gnu_cxx12_Lock_policyE2EEC2I20conditional_operatorvEEOS_IT_LS2_2EE
FN:1184,_ZNSt12__shared_ptrI16default_functionLN9__gnu_cxx12_Lock_policyE2EEC2I12print_stringvEEOS_IT_LS2_2EE
FNDA:1,_ZNSt12__shared_ptrI16default_functionLN9__gnu_cxx12_Lock_policyE2EEC2I12print_stringvEEOS_IT_LS2_2EE
FN:1184,_ZNSt12__shared_ptrI16default_functionLN9__gnu_cxx12_Lock_policyE2EEC2I11dereferencevEEOS_IT_LS2_2EE
FNDA:1,_ZNSt12__shared_ptrI16default_functionLN9__gnu_cxx12_Lock_policyE2EEC2I11dereferencevEEOS_IT_LS2_2EE
FN:1184,_ZNSt12__shared_ptrI16default_functionLN9__gnu_cxx12_Lock_policyE2EEC2I9referencevEEOS_IT_LS2_2EE
FNDA:1,_ZNSt12__shared_ptrI16default_functionLN9__gnu_cxx12_Lock_policyE2EEC2I9referencevEEOS_IT_LS2_2EE
FN:1184,_ZNSt12__shared_ptrI16default_functionLN9__gnu_cxx12_Lock_policyE2EEC2I5equalvEEOS_IT_LS2_2EE
FNDA:1,_ZNSt12__shared_ptrI16default_functionLN9__gnu_cxx12_Lock_policyE2EEC2I5equalvEEOS_IT_LS2_2EE
FN:1184,_ZNSt12__shared_ptrI16default_functionLN9__gnu_cxx12_Lock_policyE2EEC2I7greatervEEOS_IT_LS2_2EE
FNDA:1,_ZNSt12__shared_ptrI16default_functionLN9__gnu_cxx12_Lock_policyE2EEC2I7greatervEEOS_IT_LS2_2EE
FN:1184,_ZNSt12__shared_ptrI16default_functionLN9__gnu_cxx12_Lock_policyE2EEC2I4lessvEEOS_IT_LS2_2EE
FNDA:1,_ZNSt12__shared_ptrI16default_functionLN9__gnu_cxx12_Lock_policyE2EEC2I4lessvEEOS_IT_LS2_2EE
FN:1184,_ZNSt12__shared_ptrI16default_functionLN9__gnu_cxx12_Lock_policyE2EEC2I2crvEEOS_IT_LS2_2EE
FNDA:1,_ZNSt12__shared_ptrI16default_functionLN9__gnu_cxx12_Lock_policyE2EEC2I2crvEEOS_IT_LS2_2EE
FN:1184,_ZNSt12__shared_ptrI16default_functionLN9__gnu_cxx12_Lock_policyE2EEC2I4emitvEEOS_IT_LS2_2EE
FNDA:1,_ZNSt12__shared_ptrI16default_functionLN9__gnu_cxx12_Lock_policyE2EEC2I4emitvEEOS_IT_LS2_2EE
FN:1184,_ZNSt12__shared_ptrI16default_functionLN9__gnu_cxx12_Lock_policyE2EEC2I4swapvEEOS_IT_LS2_2EE
FNDA:1,_ZNSt12__shared_ptrI16default_functionLN9__gnu_cxx12_Lock_policyE2EEC2I4swapvEEOS_IT_LS2_2EE
FN:1184,_ZNSt12__shared_ptrI16default_functionLN9__gnu_cxx12_Lock_policyE2EEC2I8multiplyvEEOS_IT_LS2_2EE
FNDA:1,_ZNSt12__shared_ptrI16default_functionLN9__gnu_cxx12_Lock_policyE2EEC2I8multiplyvEEOS_IT_LS2_2EE
FN:1184,_ZNSt12__shared_ptrI16default_functionLN9__gnu_cxx12_Lock_policyE2EEC2I4copyvEEOS_IT_LS2_2EE
FNDA:1,_ZNSt12__shared_ptrI16default_functionLN9__gnu_cxx12_Lock_policyE2EEC2I4copyvEEOS_IT_LS2_2EE
FN:1184,_ZNSt12__shared_ptrI16default_functionLN9__gnu_cxx12_Lock_policyE2EEC2I3modvEEOS_IT_LS2_2EE
FNDA:1,_ZNSt12__shared_ptrI16default_functionLN9__gnu_cxx12_Lock_policyE2EEC2I3modvEEOS_IT_LS2_2EE
FN:1184,_ZNSt12__shared_ptrI16default_functionLN9__gnu_cxx12_Lock_policyE2EEC2I5printvEEOS_IT_LS2_2EE
FNDA:1,_ZNSt12__shared_ptrI16default_functionLN9__gnu_cxx12_Lock_policyE2EEC2I5printvEEOS_IT_LS2_2EE
FN:1184,_ZNSt12__shared_ptrI16default_functionLN9__gnu_cxx12_Lock_policyE2EEC2I5minusvEEOS_IT_LS2_2EE
FNDA:1,_ZNSt12__shared_ptrI16default_functionLN9__gnu_cxx12_Lock_policyE2EEC2I5minusvEEOS_IT_LS2_2EE
FN:1184,_ZNSt12__shared_ptrI16default_functionLN9__gnu_cxx12_Lock_policyE2EEC2I4plusvEEOS_IT_LS2_2EE
FNDA:1,_ZNSt12__shared_ptrI16default_functionLN9__gnu_cxx12_Lock_policyE2EEC2I4plusvEEOS_IT_LS2_2EE
FN:1184,_ZNSt12__shared_ptrI16default_functionLN9__gnu_cxx12_Lock_policyE2EEC2I3rotvEEOS_IT_LS2_2EE
FNDA:1,_ZNSt12__shared_ptrI16default_functionLN9__gnu_cxx12_Lock_policyE2EEC2I3rotvEEOS_IT_LS2_2EE
FN:1184,_ZNSt12__shared_ptrI16default_functionLN9__gnu_cxx12_Lock_policyE2EEC2I6dividevEEOS_IT_LS2_2EE
FNDA:1,_ZNSt12__shared_ptrI16default_functionLN9__gnu_cxx12_Lock_policyE2EEC2I6dividevEEOS_IT_LS2_2EE
FN:1184,_ZNSt12__shared_ptrI16default_functionLN9__gnu_cxx12_Lock_policyE2EEC2I4overvEEOS_IT_LS2_2EE
FNDA:1,_ZNSt12__shared_ptrI16default_functionLN9__gnu_cxx12_Lock_policyE2EEC2I4overvEEOS_IT_LS2_2EE
FN:1309,_ZNKSt12__shared_ptrI16default_functionLN9__gnu_cxx12_Lock_policyE2EE3getEv
FNDA:100119,_ZNKSt12__shared_ptrI16default_functionLN9__gnu_cxx12_Lock_policyE2EE3getEv
FN:1388,_ZNSt12__shared_ptrI7greaterLN9__gnu_cxx12_Lock_policyE2EE31_M_enable_shared_from_this_withIS0_S0_EENSt9enable_ifIXntsrNS3_15__has_esft_baseIT0_vEE5valueEvE4typeEPT_
FNDA:1,_ZNSt12__shared_ptrI7greaterLN9__gnu_cxx12_Lock_policyE2EE31_M_enable_shared_from_this_withIS0_S0_EENSt9enable_ifIXntsrNS3_15__has_esft_baseIT0_vEE5valueEvE4typeEPT_
FN:1388,_ZNSt12__shared_ptrI4copyLN9__gnu_cxx12_Lock_policyE2EE31_M_enable_shared_from_this_withIS0_S0_EENSt9enable_ifIXntsrNS3_15__has_esft_baseIT0_vEE5valueEvE4typeEPT_
FNDA:1,_ZNSt12__shared_ptrI4copyLN9__gnu_cxx12_Lock_policyE2EE31_M_enable_shared_from_this_withIS0_S0_EENSt9enable_ifIXntsrNS3_15__has_esft_baseIT0_vEE5valueEvE4typeEPT_
FN:1388,_ZNSt12__shared_ptrI4dropLN9__gnu_cxx12_Lock_policyE2EE31_M_enable_shared_from_this_withIS0_S0_EENSt9enable_ifIXntsrNS3_15__has_esft_baseIT0_vEE5valueEvE4typeEPT_
FNDA:1,_ZNSt12__shared_ptrI4dropLN9__gnu_cxx12_Lock_policyE2EE31_M_enable_shared_from_this_withIS0_S0_EENSt9enable_ifIXntsrNS3_15__has_esft_baseIT0_vEE5valueEvE4typeEPT_
FN:1388,_ZNSt12__shared_ptrI4lessLN9__gnu_cxx12_Lock_policyE2EE31_M_enable_shared_from_this_withIS0_S0_EENSt9enable_ifIXntsrNS3_15__has_esft_baseIT0_vEE5valueEvE4typeEPT_
FNDA:1,_ZNSt12__shared_ptrI4lessLN9__gnu_cxx12_Lock_policyE2EE31_M_enable_shared_from_this_withIS0_S0_EENSt9enable_ifIXntsrNS3_15__has_esft_baseIT0_vEE5valueEvE4typeEPT_
FN:1388,_ZNSt12__shared_ptrI5printLN9__gnu_cxx12_Lock_policyE2EE31_M_enable_shared_from_this_withIS0_S0_EENSt9enable_ifIXntsrNS3_15__has_esft_baseIT0_vEE5valueEvE4typeEPT_
FNDA:1,_ZNSt12__shared_ptrI5printLN9__gnu_cxx12_Lock_policyE2EE31_M_enable_shared_from_this_withIS0_S0_EENSt9enable_ifIXntsrNS3_15__has_esft_baseIT0_vEE5valueEvE4typeEPT_
FN:1388,_ZNSt12__shared_ptrI9referenceLN9__gnu_cxx12_Lock_policyE2EE31_M_enable_shared_from_this_withIS0_S0_EENSt9enable_ifIXntsrNS3_15__has_esft_baseIT0_vEE5valueEvE4typeEPT_
FNDA:1,_ZNSt12__shared_ptrI9referenceLN9__gnu_cxx12_Lock_policyE2EE31_M_enable_shared_from_this_withIS0_S0_EENSt9enable_ifIXntsrNS3_15__has_esft_baseIT0_vEE5valueEvE4typeEPT_
FN:1388,_ZNSt12__shared_ptrI4swapLN9__gnu_cxx12_Lock_policyE2EE31_M_enable_shared_from_this_withIS0_S0_EENSt9enable_ifIXntsrNS3_15__has_esft_baseIT0_vEE5valueEvE4typeEPT_
FNDA:1,_ZNSt12__shared_ptrI4swapLN9__gnu_cxx12_Lock_policyE2EE31_M_enable_shared_from_this_withIS0_S0_EENSt9enable_ifIXntsrNS3_15__has_esft_baseIT0_vEE5valueEvE4typeEPT_
FN:1388,_ZNSt12__shared_ptrI2crLN9__gnu_cxx12_Lock_policyE2EE31_M_enable_shared_from_this_withIS0_S0_EENSt9enable_ifIXntsrNS3_15__has_esft_baseIT0_vEE5valueEvE4typeEPT_
FNDA:1,_ZNSt12__shared_ptrI2crLN9__gnu_cxx12_Lock_policyE2EE31_M_enable_shared_from_this_withIS0_S0_EENSt9enable_ifIXntsrNS3_15__has_esft_baseIT0_vEE5valueEvE4typeEPT_
FN:1388,_ZNSt12__shared_ptrI3rotLN9__gnu_cxx12_Lock_policyE2EE31_M_enable_shared_from_this_withIS0_S0_EENSt9enable_ifIXntsrNS3_15__has_esft_baseIT0_vEE5valueEvE4typeEPT_
FNDA:1,_ZNSt12__shared_ptrI3rotLN9__gnu_cxx12_Lock_policyE2EE31_M_enable_shared_from_this_withIS0_S0_EENSt9enable_ifIXntsrNS3_15__has_esft_baseIT0_vEE5valueEvE4typeEPT_
FN:1388,_ZNSt12__shared_ptrI4overLN9__gnu_cxx12_Lock_policyE2EE31_M_enable_shared_from_this_withIS0_S0_EENSt9enable_ifIXntsrNS3_15__has_esft_baseIT0_vEE5valueEvE4typeEPT_
FNDA:1,_ZNSt12__shared_ptrI4overLN9__gnu_cxx12_Lock_policyE2EE31_M_enable_shared_from_this_withIS0_S0_EENSt9enable_ifIXntsrNS3_15__has_esft_baseIT0_vEE5valueEvE4typeEPT_
FN:1388,_ZNSt12__shared_ptrI4emitLN9__gnu_cxx12_Lock_policyE2EE31_M_enable_shared_from_this_withIS0_S0_EENSt9enable_ifIXntsrNS3_15__has_esft_baseIT0_vEE5valueEvE4typeEPT_
FNDA:1,_ZNSt12__shared_ptrI4emitLN9__gnu_cxx12_Lock_policyE2EE31_M_enable_shared_from_this_withIS0_S0_EENSt9enable_ifIXntsrNS3_15__has_esft_baseIT0_vEE5valueEvE4typeEPT_
FN:1388,_ZNSt12__shared_ptrI3modLN9__gnu_cxx12_Lock_policyE2EE31_M_enable_shared_from_this_withIS0_S0_EENSt9enable_ifIXntsrNS3_15__has_esft_baseIT0_vEE5valueEvE4typeEPT_
FNDA:1,_ZNSt12__shared_ptrI3modLN9__gnu_cxx12_Lock_policyE2EE31_M_enable_shared_from_this_withIS0_S0_EENSt9enable_ifIXntsrNS3_15__has_esft_baseIT0_vEE5valueEvE4typeEPT_
FN:1388,_ZNSt12__shared_ptrI5minusLN9__gnu_cxx12_Lock_policyE2EE31_M_enable_shared_from_this_withIS0_S0_EENSt9enable_ifIXntsrNS3_15__has_esft_baseIT0_vEE5valueEvE4typeEPT_
FNDA:1,_ZNSt12__shared_ptrI5minusLN9__gnu_cxx12_Lock_policyE2EE31_M_enable_shared_from_this_withIS0_S0_EENSt9enable_ifIXntsrNS3_15__has_esft_baseIT0_vEE5valueEvE4typeEPT_
FN:1388,_ZNSt12__shared_ptrI5equalLN9__gnu_cxx12_Lock_policyE2EE31_M_enable_shared_from_this_withIS0_S0_EENSt9enable_ifIXntsrNS3_15__has_esft_baseIT0_vEE5valueEvE4typeEPT_
FNDA:1,_ZNSt12__shared_ptrI5equalLN9__gnu_cxx12_Lock_policyE2EE31_M_enable_shared_from_this_withIS0_S0_EENSt9enable_ifIXntsrNS3_15__has_esft_baseIT0_vEE5valueEvE4typeEPT_
FN:1388,_ZNSt12__shared_ptrI4plusLN9__gnu_cxx12_Lock_policyE2EE31_M_enable_shared_from_this_withIS0_S0_EENSt9enable_ifIXntsrNS3_15__has_esft_baseIT0_vEE5valueEvE4typeEPT_
FNDA:1,_ZNSt12__shared_ptrI4plusLN9__gnu_cxx12_Lock_policyE2EE31_M_enable_shared_from_this_withIS0_S0_EENSt9enable_ifIXntsrNS3_15__has_esft_baseIT0_vEE5valueEvE4typeEPT_
FN:1388,_ZNSt12__shared_ptrI6divideLN9__gnu_cxx12_Lock_policyE2EE31_M_enable_shared_from_this_withIS0_S0_EENSt9enable_ifIXntsrNS3_15__has_esft_baseIT0_vEE5valueEvE4typeEPT_
FNDA:1,_ZNSt12__shared_ptrI6divideLN9__gnu_cxx12_Lock_policyE2EE31_M_enable_shared_from_this_withIS0_S0_EENSt9enable_ifIXntsrNS3_15__has_esft_baseIT0_vEE5valueEvE4typeEPT_
FN:1388,_ZNSt12__shared_ptrI8multiplyLN9__gnu_cxx12_Lock_policyE2EE31_M_enable_shared_from_this_withIS0_S0_EENSt9enable_ifIXntsrNS3_15__has_esft_baseIT0_vEE5valueEvE4typeEPT_
FNDA:1,_ZNSt12__shared_ptrI8multiplyLN9__gnu_cxx12_Lock_policyE2EE31_M_enable_shared_from_this_withIS0_S0_EENSt9enable_ifIXntsrNS3_15__has_esft_baseIT0_vEE5valueEvE4typeEPT_
FN:1388,_ZNSt12__shared_ptrI11dereferenceLN9__gnu_cxx12_Lock_policyE2EE31_M_enable_shared_from_this_withIS0_S0_EENSt9enable_ifIXntsrNS3_15__has_esft_baseIT0_vEE5valueEvE4typeEPT_
FNDA:1,_ZNSt12__shared_ptrI11dereferenceLN9__gnu_cxx12_Lock_policyE2EE31_M_enable_shared_from_this_withIS0_S0_EENSt9enable_ifIXntsrNS3_15__has_esft_baseIT0_vEE5valueEvE4typeEPT_
FN:1388,_ZNSt12__shared_ptrI12print_stringLN9__gnu_cxx12_Lock_policyE2EE31_M_enable_shared_from_this_withIS0_S0_EENSt9enable_ifIXntsrNS3_15__has_esft_baseIT0_vEE5valueEvE4typeEPT_
FNDA:1,_ZNSt12__shared_ptrI12print_stringLN9__gnu_cxx12_Lock_policyE2EE31_M_enable_shared_from_this_withIS0_S0_EENSt9enable_ifIXntsrNS3_15__has_esft_baseIT0_vEE5valueEvE4typeEPT_
FN:1388,_ZNSt12__shared_ptrI4loopLN9__gnu_cxx12_Lock_policyE2EE31_M_enable_shared_from_this_withIS0_S0_EENSt9enable_ifIXntsrNS3_15__has_esft_baseIT0_vEE5valueEvE4typeEPT_
FNDA:1,_ZNSt12__shared_ptrI4loopLN9__gnu_cxx12_Lock_policyE2EE31_M_enable_shared_from_this_withIS0_S0_EENSt9enable_ifIXntsrNS3_15__has_esft_baseIT0_vEE5valueEvE4typeEPT_
FN:1388,_ZNSt12__shared_ptrI20conditional_operatorLN9__gnu_cxx12_Lock_policyE2EE31_M_enable_shared_from_this_withIS0_S0_EENSt9enable_ifIXntsrNS3_15__has_esft_baseIT0_vEE5valueEvE4typeEPT_
FNDA:1,_ZNSt12__shared_ptrI20conditional_operatorLN9__gnu_cxx12_Lock_policyE2EE31_M_enable_shared_from_this_withIS0_S0_EENSt9enable_ifIXntsrNS3_15__has_esft_baseIT0_vEE5valueEvE4typeEPT_
DA:117,21
DA:118,21
DA:121,0
DA:122,0
DA:121,21
DA:122,21
DA:131,0
DA:132,0
DA:138,21
DA:139,21
DA:148,42
DA:152,42
DA:155,21
DA:167,21
DA:168,21
DA:171,21
DA:174,42
DA:372,1
DA:373,1
DA:372,1
DA:373,1
DA:372,1
DA:373,1
DA:372,1
DA:373,1
DA:372,1
DA:373,1
DA:372,1
DA:373,1
DA:372,1
DA:373,1
DA:372,1
DA:373,1
DA:372,1
DA:373,1
DA:372,1
DA:373,1
DA:372,1
DA:373,1
DA:372,1
DA:373,1
DA:372,1
DA:373,1
DA:372,1
DA:373,1
DA:372,1
DA:373,1
DA:372,1
DA:373,1
DA:372,1
DA:373,1
DA:372,1
DA:373,1
DA:372,1
DA:373,1
DA:372,1
DA:373,1
DA:372,1
DA:373,1
DA:376,1
DA:377,1
DA:376,1
DA:377,1
DA:376,1
DA:377,1
DA:376,1
DA:377,1
DA:376,1
DA:377,1
DA:376,1
DA:377,1
DA:376,1
DA:377,1
DA:376,1
DA:377,1
DA:376,1
DA:377,1
DA:376,1
DA:377,1
DA:376,1
DA:377,1
DA:376,1
DA:377,1
DA:376,1
DA:377,1
DA:376,1
DA:377,1
DA:376,1
DA:377,1
DA:376,1
DA:377,1
DA:376,1
DA:377,1
DA:376,1
DA:377,1
DA:376,1
DA:377,1
DA:376,1
DA:377,1
DA:376,1
DA:377,1
DA:380,1
DA:381,1
DA:380,1
DA:381,1
DA:380,1
DA:381,1
DA:380,1
DA:381,1
DA:380,1
DA:381,1
DA:380,1
DA:381,1
DA:380,1
DA:381,1
DA:380,1
DA:381,1
DA:380,1
DA:381,1
DA:380,1
DA:381,1
DA:380,1
DA:381,1
DA:380,1
DA:381,1
DA:380,1
DA:381,1
DA:380,1
DA:381,1
DA:380,1
DA:381,1
DA:380,1
DA:381,1
DA:380,1
DA:381,1
DA:380,1
DA:381,1
DA:380,1
DA:381,1
DA:380,1
DA:381,1
DA:380,1
DA:381,1
DA:384,0
DA:385,0
DA:384,0
DA:385,0
DA:384,0
DA:385,0
DA:384,0
DA:385,0
DA:384,0
DA:385,0
DA:384,0
DA:385,0
DA:384,0
DA:385,0
DA:384,0
DA:385,0
DA:384,0
DA:385,0
DA:384,0
DA:385,0
DA:384,0
DA:385,0
DA:384,0
DA:385,0
DA:384,0
DA:385,0
DA:384,0
DA:385,0
DA:384,0
DA:385,0
DA:384,0
DA:385,0
DA:384,0
DA:385,0
DA:384,0
DA:385,0
DA:384,0
DA:385,0
DA:384,0
DA:385,0
DA:384,0
DA:385,0
DA:616,42
DA:617,42
DA:621,1
DA:625,1
DA:627,0
DA:629,0
DA:630,0
DA:632,1
DA:621,1
DA:625,1
DA:627,0
DA:629,0
DA:630,0
DA:632,1
DA:621,1
DA:625,1
DA:627,0
DA:629,0
DA:630,0
DA:632,1
DA:621,1
DA:625,1
DA:627,0
DA:629,0
DA:630,0
DA:632,1
DA:621,1
DA:625,1
DA:627,0
DA:629,0
DA:630,0
DA:632,1
DA:621,1
DA:625,1
DA:627,0
DA:629,0
DA:630,0
DA:632,1
DA:621,1
DA:625,1
DA:627,0
DA:629,0
DA:630,0
DA:632,1
DA:621,1
DA:625,1
DA:627,0
DA:629,0
DA:630,0
DA:632,1
DA:621,1
DA:625,1
DA:627,0
DA:629,0
DA:630,0
DA:632,1
DA:621,1
DA:625,1
DA:627,0
DA:629,0
DA:630,0
DA:632,1
DA:621,1
DA:625,1
DA:627,0
DA:629,0
DA:630,0
DA:632,1
DA:621,1
DA:625,1
DA:627,0
DA:629,0
DA:630,0
DA:632,1
DA:621,1
DA:625,1
DA:627,0
DA:629,0
DA:630,0
DA:632,1
DA:621,1
DA:625,1
DA:627,0
DA:629,0
DA:630,0
DA:632,1
DA:621,1
DA:625,1
DA:627,0
DA:629,0
DA:630,0
DA:632,1
DA:621,1
DA:625,1
DA:627,0
DA:629,0
DA:630,0
DA:632,1
DA:621,1
DA:625,1
DA:627,0
DA:629,0
DA:630,0
DA:632,1
DA:621,1
DA:625,1
DA:627,0
DA:629,0
DA:630,0
DA:632,1
DA:621,1
DA:625,1
DA:627,0
DA:629,0
DA:630,0
DA:632,1
DA:621,1
DA:625,1
DA:627,0
DA:629,0
DA:630,0
DA:632,1
DA:621,1
DA:625,1
DA:627,0
DA:629,0
DA:630,0
DA:632,1
DA:635,1
DA:636,1
DA:637,1
DA:635,1
DA:636,1
DA:637,1
DA:635,1
DA:636,1
DA:637,1
DA:635,1
DA:636,1
DA:637,1
DA:635,1
DA:636,1
DA:637,1
DA:635,1
DA:636,1
DA:637,1
DA:635,1
DA:636,1
DA:637,1
DA:635,1
DA:636,1
DA:637,1
DA:635,1
DA:636,1
DA:637,1
DA:635,1
DA:636,1
DA:637,1
DA:635,1
DA:636,1
DA:637,1
DA:635,1
DA:636,1
DA:637,1
DA:635,1
DA:636,1
DA:637,1
DA:635,1
DA:636,1
DA:637,1
DA:635,1
DA:636,1
DA:637,1
DA:635,1
DA:636,1
DA:637,1
DA:635,1
DA:636,1
DA:637,1
DA:635,1
DA:636,1
DA:637,1
DA:635,1
DA:636,1
DA:637,1
DA:635,1
DA:636,1
DA:637,1
DA:635,1
DA:636,1
DA:637,1
DA:727,84
DA:729,84
DA:730,42
DA:731,84
DA:733,21
DA:734,21
DA:736,21
DA:737,21
DA:738,21
DA:756,42
DA:758,42
DA:759,42
DA:760,42
DA:761,42
DA:1012,100119
DA:1015,100119
DA:1020,100119
DA:1021,100119
DA:1124,1
DA:1125,1
DA:1129,1
DA:1130,1
DA:1124,1
DA:1125,1
DA:1129,1
DA:1130,1
DA:1124,1
DA:1125,1
DA:1129,1
DA:1130,1
DA:1124,1
DA:1125,1
DA:1129,1
DA:1130,1
DA:1124,1
DA:1125,1
DA:1129,1
DA:1130,1
DA:1124,1
DA:1125,1
DA:1129,1
DA:1130,1
DA:1124,1
DA:1125,1
DA:1129,1
DA:1130,1
DA:1124,1
DA:1125,1
DA:1129,1
DA:1130,1
DA:1124,1
DA:1125,1
DA:1129,1
DA:1130,1
DA:1124,1
DA:1125,1
DA:1129,1
DA:1130,1
DA:1124,1
DA:1125,1
DA:1129,1
DA:1130,1
DA:1124,1
DA:1125,1
DA:1129,1
DA:1130,1
DA:1124,1
DA:1125,1
DA:1129,1
DA:1130,1
DA:1124,1
DA:1125,1
DA:1129,1
DA:1130,1
DA:1124,1
DA:1125,1
DA:1129,1
DA:1130,1
DA:1124,1
DA:1125,1
DA:1129,1
DA:1130,1
DA:1124,1
DA:1125,1
DA:1129,1
DA:1130,1
DA:1124,1
DA:1125,1
DA:1129,1
DA:1130,1
DA:1124,1
DA:1125,1
DA:1129,1
DA:1130,1
DA:1124,1
DA:1125,1
DA:1129,1
DA:1130,1
DA:1124,1
DA:1125,1
DA:1129,1
DA:1130,1
DA:1167,21
DA:1169,1
DA:1169,63
DA:1169,1
DA:1169,1
DA:1169,1
DA:1169,1
DA:1169,1
DA:1169,1
DA:1169,1
DA:1169,1
DA:1169,1
DA:1169,1
DA:1169,1
DA:1169,1
DA:1169,1
DA:1169,1
DA:1169,1
DA:1169,1
DA:1169,1
DA:1169,1
DA:1169,1
DA:1169,1
DA:1176,21
DA:1177,21
DA:1179,21
DA:1180,21
DA:1181,21
DA:1184,1
DA:1185,1
DA:1187,1
DA:1188,1
DA:1189,1
DA:1184,1
DA:1185,1
DA:1187,1
DA:1188,1
DA:1189,1
DA:1184,1
DA:1185,1
DA:1187,1
DA:1188,1
DA:1189,1
DA:1184,1
DA:1185,1
DA:1187,1
DA:1188,1
DA:1189,1
DA:1184,1
DA:1185,1
DA:1187,1
DA:1188,1
DA:1189,1
DA:1184,1
DA:1185,1
DA:1187,1
DA:1188,1
DA:1189,1
DA:1184,1
DA:1185,1
DA:1187,1
DA:1188,1
DA:1189,1
DA:1184,1
DA:1185,1
DA:1187,1
DA:1188,1
DA:1189,1
DA:1184,1
DA:1185,1
DA:1187,1
DA:1188,1
DA:1189,1
DA:1184,1
DA:1185,1
DA:1187,1
DA:1188,1
DA:1189,1
DA:1184,1
DA:1185,1
DA:1187,1
DA:1188,1
DA:1189,1
DA:1184,1
DA:1185,1
DA:1187,1
DA:1188,1
DA:1189,1
DA:1184,1
DA:1185,1
DA:1187,1
DA:1188,1
DA:1189,1
DA:1184,1
DA:1185,1
DA:1187,1
DA:1188,1
DA:1189,1
DA:1184,1
DA:1185,1
DA:1187,1
DA:1188,1
DA:1189,1
DA:1184,1
DA:1185,1
DA:1187,1
DA:1188,1
DA:1189,1
DA:1184,1
DA:1185,1
DA:1187,1
DA:1188,1
DA:1189,1
DA:1184,1
DA:1185,1
DA:1187,1
DA:1188,1
DA:1189,1
DA:1184,1
DA:1185,1
DA:1187,1
DA:1188,1
DA:1189,1
DA:1184,1
DA:1185,1
DA:1187,1
DA:1188,1
DA:1189,1
DA:1184,1
DA:1185,1
DA:1187,1
DA:1188,1
DA:1189,1
DA:1309,100119
DA:1310,100119
DA:1388,1
DA:1389,1
DA:1388,1
DA:1389,1
DA:1388,1
DA:1389,1
DA:1388,1
DA:1389,1
DA:1388,1
DA:1389,1
DA:1388,1
DA:1389,1
DA:1388,1
DA:1389,1
DA:1388,1
DA:1389,1
DA:1388,1
DA:1389,1
DA:1388,1
DA:1389,1
DA:1388,1
DA:1389,1
DA:1388,1
DA:1389,1
DA:1388,1
DA:1389,1
DA:1388,1
DA:1389,1
DA:1388,1
DA:1389,1
DA:1388,1
DA:1389,1
DA:1388,1
DA:1389,1
DA:1388,1
DA:1389,1
DA:1388,1
DA:1389,1
DA:1388,1
DA:1389,1
DA:1388,1
DA:1389,1
end_of_record
SF:/usr/include/c++/9/bits/ios_base.h
FN:129,_ZStorSt13_Ios_OpenmodeS_
FNDA:100049,_ZStorSt13_Ios_OpenmodeS_
DA:129,100049
DA:130,100049
end_of_record
SF:/usr/include/c++/9/bits/basic_string.h
FN:247,_ZNSt7__cxx1112basic_stringIcSt11char_traitsIcESaIcEE16_M_construct_auxIPcEEvT_S7_St12__false_type
FNDA:200000,_ZNSt7__cxx1112basic_stringIcSt11char_traitsIcESaIcEE16_M_construct_auxIPcEEvT_S7_St12__false_type
FN:247,_ZNSt7__cxx1112basic_stringIcSt11char_traitsIcESaIcEE16_M_construct_auxIPKcEEvT_S8_St12__false_type
FNDA:0,_ZNSt7__cxx1112basic_stringIcSt11char_traitsIcESaIcEE16_M_construct_auxIPKcEEvT_S8_St12__false_type
FN:267,_ZNSt7__cxx1112basic_stringIcSt11char_traitsIcESaIcEE12_M_constructIPcEEvT_S7_
FNDA:200000,_ZNSt7__cxx1112basic_stringIcSt11char_traitsIcESaIcEE12_M_constructIPcEEvT_S7_
FN:267,_ZNSt7__cxx1112basic_stringIcSt11char_traitsIcESaIcEE12_M_constructIPKcEEvT_S8_
FNDA:0,_ZNSt7__cxx1112basic_stringIcSt11char_traitsIcESaIcEE12_M_constructIPKcEEvT_S8_
FN:629,_ZNSt7__cxx1112basic_stringIcSt11char_traitsIcESaIcEEC2IPcvEET_S7_RKS3_
FNDA:200000,_ZNSt7__cxx1112basic_stringIcSt11char_traitsIcESaIcEEC2IPcvEET_S7_RKS3_
FN:6060,_ZStplIcSt11char_traitsIcESaIcEENSt7__cxx1112basic_stringIT_T0_T1_EERKS8_PKS5_
FNDA:12,_ZStplIcSt11char_traitsIcESaIcEENSt7__cxx1112basic_stringIT_T0_T1_EERKS8_PKS5_
FN:6112,_ZStplIcSt11char_traitsIcESaIcEENSt7__cxx1112basic_stringIT_T0_T1_EEPKS5_OS8_
FNDA:200242,_ZStplIcSt11char_traitsIcESaIcEENSt7__cxx1112basic_stringIT_T0_T1_EEPKS5_OS8_
FN:6124,_ZStplIcSt11char_traitsIcESaIcEENSt7__cxx1112basic_stringIT_T0_T1_EEOS8_PKS5_
FNDA:400254,_ZStplIcSt11char_traitsIcESaIcEENSt7__cxx1112basic_stringIT_T0_T1_EEOS8_PKS5_
FN:6152,_ZSteqIcEN9__gnu_cxx11__enable_ifIXsrSt9__is_charIT_E7__valueEbE6__typeERKNSt7__cxx1112basic_stringIS3_St11char_traitsIS3_ESaIS3_EEESE_
FNDA:100023,_ZSteqIcEN9__gnu_cxx11__enable_ifIXsrSt9__is_charIT_E7__valueEbE6__typeERKNSt7__cxx1112basic_stringIS3_St11char_traitsIS3_ESaIS3_EEESE_
FN:6178,_ZSteqIcSt11char_traitsIcESaIcEEbRKNSt7__cxx1112basic_stringIT_T0_T1_EEPKS5_
FNDA:400557,_ZSteqIcSt11char_traitsIcESaIcEEbRKNSt7__cxx1112basic_stringIT_T0_T1_EEPKS5_
FN:6216,_ZStneIcSt11char_traitsIcESaIcEEbRKNSt7__cxx1112basic_stringIT_T0_T1_EEPKS5_
FNDA:18,_ZStneIcSt11char_traitsIcESaIcEEbRKNSt7__cxx1112basic_stringIT_T0_T1_EEPKS5_
FN:6229,_ZStltIcSt11char_traitsIcESaIcEEbRKNSt7__cxx1112basic_stringIT_T0_T1_EESA_
FNDA:1001250,_ZStltIcSt11char_traitsIcESaIcEEbRKNSt7__cxx1112basic_stringIT_T0_T1_EESA_
FN:6506,_ZNSt7__cxx114stoiERKNS_12basic_stringIcSt11char_traitsIcESaIcEEEPmi
FNDA:100098,_ZNSt7__cxx114stoiERKNS_12basic_stringIcSt11char_traitsIcESaIcEEEPmi
FN:6571,_ZNSt7__cxx119to_stringEx
FNDA:200000,_ZNSt7__cxx119to_stringEx
DA:247,200000
DA:251,200000
DA:252,200000
DA:247,0
DA:251,0
DA:252,0
DA:267,200000
DA:270,200000
DA:271,200000
DA:267,0
DA:270,0
DA:271,0
DA:629,200000
DA:631,200000
DA:632,200000
DA:6060,12
DA:6063,12
DA:6064,12
DA:6065,12
DA:6112,200242
DA:6114,200242
DA:6124,400254
DA:6126,400254
DA:6152,100023
DA:6154,100023
DA:6155,100023
DA:6156,100023
DA:6178,400557
DA:6180,400557
DA:6216,18
DA:6218,18
DA:6229,1001250
DA:6232,1001250
DA:6506,100098
DA:6507,100098
DA:6508,100098
DA:6571,200000
DA:6574,200000
end_of_record
SF:/usr/include/c++/9/initializer_list
FN:71,_ZNKSt16initializer_listINSt7__cxx1112basic_stringIcSt11char_traitsIcESaIcEEEE4sizeEv
FNDA:1,_ZNKSt16initializer_listINSt7__cxx1112basic_stringIcSt11char_traitsIcESaIcEEEE4sizeEv
FN:75,_ZNKSt16initializer_listINSt7__cxx1112basic_stringIcSt11char_traitsIcESaIcEEEE5beginEv
FNDA:2,_ZNKSt16initializer_listINSt7__cxx1112basic_stringIcSt11char_traitsIcESaIcEEEE5beginEv
FN:79,_ZNKSt16initializer_listINSt7__cxx1112basic_stringIcSt11char_traitsIcESaIcEEEE3endEv
FNDA:1,_ZNKSt16initializer_listINSt7__cxx1112basic_stringIcSt11char_traitsIcESaIcEEEE3endEv
DA:71,1
DA:75,2
DA:79,1
end_of_record
SF:/usr/include/c++/9/bits/alloc_traits.h
FN:442,_ZNSt16allocator_traitsISaIxEE8allocateERS0_m
FNDA:200064,_ZNSt16allocator_traitsISaIxEE8allocateERS0_m
FN:442,_ZNSt16allocator_traitsISaINSt7__cxx1112basic_stringIcSt11char_traitsIcESaIcEEEEE8allocateERS6_m
FNDA:1,_ZNSt16allocator_traitsISaINSt7__cxx1112basic_stringIcSt11char_traitsIcESaIcEEEEE8allocateERS6_m
FN:442,_ZNSt16allocator_traitsISaIPxEE8allocateERS1_m
FNDA:200064,_ZNSt16allocator_traitsISaIPxEE8allocateERS1_m
FN:442,_ZNSt16allocator_traitsISaISt13_Rb_tree_nodeISt4pairIKNSt7__cxx1112basic_stringIcSt11char_traitsIcESaIcEEESt10shared_ptrI16default_functionEEEEE8allocateERSE_m
FNDA:21,_ZNSt16allocator_traitsISaISt13_Rb_tree_nodeISt4pairIKNSt7__cxx1112basic_stringIcSt11char_traitsIcESaIcEEESt10shared_ptrI16default_functionEEEEE8allocateERSE_m
FN:442,_ZNSt16allocator_traitsISaISt13_Rb_tree_nodeISt4pairIKNSt7__cxx1112basic_stringIcSt11char_traitsIcESaIcEEES7_EEEE8allocateERSB_m
FNDA:1,_ZNSt16allocator_traitsISaISt13_Rb_tree_nodeISt4pairIKNSt7__cxx1112basic_stringIcSt11char_traitsIcESaIcEEES7_EEEE8allocateERSB_m
FN:442,_ZNSt16allocator_traitsISaISt13_Rb_tree_nodeISt4pairIKNSt7__cxx1112basic_stringIcSt11char_traitsIcESaIcEEExEEEE8allocateERSB_m
FNDA:1,_ZNSt16allocator_traitsISaISt13_Rb_tree_nodeISt4pairIKNSt7__cxx1112basic_stringIcSt11char_traitsIcESaIcEEExEEEE8allocateERSB_m
FN:468,_ZNSt16allocator_traitsISaISt13_Rb_tree_nodeISt4pairIKNSt7__cxx1112basic_stringIcSt11char_traitsIcESaIcEEExEEEE10deallocateERSB_PSA_m
FNDA:1,_ZNSt16allocator_traitsISaISt13_Rb_tree_nodeISt4pairIKNSt7__cxx1112basic_stringIcSt11char_traitsIcESaIcEEExEEEE10deallocateERSB_PSA_m
FN:468,_ZNSt16allocator_traitsISaIPxEE10deallocateERS1_PS0_m
FNDA:200064,_ZNSt16allocator_traitsISaIPxEE10deallocateERS1_PS0_m
FN:468,_ZNSt16allocator_traitsISaISt13_Rb_tree_nodeISt4pairIKNSt7__cxx1112basic_stringIcSt11char_traitsIcESaIcEEES7_EEEE10deallocateERSB_PSA_m
FNDA:1,_ZNSt16allocator_traitsISaISt13_Rb_tree_nodeISt4pairIKNSt7__cxx1112basic_stringIcSt11char_traitsIcESaIcEEES7_EEEE10deallocateERSB_PSA_m
FN:468,_ZNSt16allocator_traitsISaINSt7__cxx1112basic_stringIcSt11char_traitsIcESaIcEEEEE10deallocateERS6_PS5_m
FNDA:2,_ZNSt16allocator_traitsISaINSt7__cxx1112basic_stringIcSt11char_traitsIcESaIcEEEEE10deallocateERS6_PS5_m
FN:468,_ZNSt16allocator_traitsISaIxEE10deallocateERS0_Pxm
FNDA:200064,_ZNSt16allocator_traitsISaIxEE10deallocateERS0_Pxm
FN:468,_ZNSt16allocator_traitsISaISt13_Rb_tree_nodeISt4pairIKNSt7__cxx1112basic_stringIcSt11char_traitsIcESaIcEEESt10shared_ptrI16default_functionEEEEE10deallocateERSE_PSD_m
FNDA:21,_ZNSt16allocator_traitsISaISt13_Rb_tree_nodeISt4pairIKNSt7__cxx1112basic_stringIcSt11char_traitsIcESaIcEEESt10shared_ptrI16default_functionEEEEE10deallocateERSE_PSD_m
FN:481,_ZNSt16allocator_traitsISaISt13_Rb_tree_nodeISt4pairIKNSt7__cxx1112basic_stringIcSt11char_traitsIcESaIcEEExEEEE9constructIS9_JS9_EEEvRSB_PT_DpOT0_
FNDA:1,_ZNSt16allocator_traitsISaISt13_Rb_tree_nodeISt4pairIKNSt7__cxx1112basic_stringIcSt11char_traitsIcESaIcEEExEEEE9constructIS9_JS9_EEEvRSB_PT_DpOT0_
FN:481,_ZNSt16allocator_traitsISaISt13_Rb_tree_nodeISt4pairIKNSt7__cxx1112basic_stringIcSt11char_traitsIcESaIcEEESt10shared_ptrI16default_functionEEEEE9constructISC_JSC_EEEvRSE_PT_DpOT0_
FNDA:21,_ZNSt16allocator_traitsISaISt13_Rb_tree_nodeISt4pairIKNSt7__cxx1112basic_stringIcSt11char_traitsIcESaIcEEESt10shared_ptrI16default_functionEEEEE9constructISC_JSC_EEEvRSE_PT_DpOT0_
FN:481,_ZNSt16allocator_traitsISaISt13_Rb_tree_nodeISt4pairIKNSt7__cxx1112basic_stringIcSt11char_traitsIcESaIcEEES7_EEEE9constructIS9_JS9_EEEvRSB_PT_DpOT0_
FNDA:1,_ZNSt16allocator_traitsISaISt13_Rb_tree_nodeISt4pairIKNSt7__cxx1112basic_stringIcSt11char_traitsIcESaIcEEES7_EEEE9constructIS9_JS9_EEEvRSB_PT_DpOT0_
FN:481,_ZNSt16allocator_traitsISaIxEE9constructIxJxEEEvRS0_PT_DpOT0_
FNDA:100122,_ZNSt16allocator_traitsISaIxEE9constructIxJxEEEvRS0_PT_DpOT0_
FN:494,_ZNSt16allocator_traitsISaIxEE7destroyIxEEvRS0_PT_
FNDA:100094,_ZNSt16allocator_traitsISaIxEE7destroyIxEEvRS0_PT_
FN:494,_ZNSt16allocator_traitsISaISt13_Rb_tree_nodeISt4pairIKNSt7__cxx1112basic_stringIcSt11char_traitsIcESaIcEEESt10shared_ptrI16default_functionEEEEE7destroyISC_EEvRSE_PT_
FNDA:21,_ZNSt16allocator_traitsISaISt13_Rb_tree_nodeISt4pairIKNSt7__cxx1112basic_stringIcSt11char_traitsIcESaIcEEESt10shared_ptrI16default_functionEEEEE7destroyISC_EEvRSE_PT_
FN:494,_ZNSt16allocator_traitsISaISt13_Rb_tree_nodeISt4pairIKNSt7__cxx1112basic_stringIcSt11char_traitsIcESaIcEEES7_EEEE7destroyIS9_EEvRSB_PT_
FNDA:1,_ZNSt16allocator_traitsISaISt13_Rb_tree_nodeISt4pairIKNSt7__cxx1112basic_stringIcSt11char_traitsIcESaIcEEES7_EEEE7destroyIS9_EEvRSB_PT_
FN:494,_ZNSt16allocator_traitsISaISt13_Rb_tree_nodeISt4pairIKNSt7__cxx1112basic_stringIcSt11char_traitsIcESaIcEEExEEEE7destroyIS9_EEvRSB_PT_
FNDA:1,_ZNSt16allocator_traitsISaISt13_Rb_tree_nodeISt4pairIKNSt7__cxx1112basic_stringIcSt11char_traitsIcESaIcEEExEEEE7destroyIS9_EEvRSB_PT_
FN:504,_ZNSt16allocator_traitsISaINSt7__cxx1112basic_stringIcSt11char_traitsIcESaIcEEEEE8max_sizeERKS6_
FNDA:1,_ZNSt16allocator_traitsISaINSt7__cxx1112basic_stringIcSt11char_traitsIcESaIcEEEEE8max_sizeERKS6_
FN:504,_ZNSt16allocator_traitsISaIxEE8max_sizeERKS0_
FNDA:0,_ZNSt16allocator_traitsISaIxEE8max_sizeERKS0_
FN:513,_ZNSt16allocator_traitsISaIcEE37select_on_container_copy_constructionERKS0_
FNDA:0,_ZNSt16allocator_traitsISaIcEE37select_on_container_copy_constructionERKS0_
DA:442,1
DA:443,1
DA:442,1
DA:443,1
DA:442,21
DA:443,21
DA:442,200064
DA:443,200064
DA:442,200064
DA:443,200064
DA:442,1
DA:443,1
DA:468,1
DA:469,1
DA:468,1
DA:469,1
DA:468,200064
DA:469,200064
DA:468,21
DA:469,21
DA:468,2
DA:469,2
DA:468,200064
DA:469,200064
DA:481,1
DA:483,1
DA:481,1
DA:483,1
DA:481,21
DA:483,21
DA:481,100122
DA:483,100122
DA:494,1
DA:496,1
DA:494,1
DA:496,1
DA:494,21
DA:496,21
DA:494,100094
DA:496,100094
DA:504,0
DA:505,0
DA:504,1
DA:505,1
DA:513,0
DA:514,0
end_of_record
SF:/usr/include/c++/9/bits/stl_iterator_base_types.h
FN:205,_ZSt19__iterator_categoryIPcENSt15iterator_traitsIT_E17iterator_categoryERKS2_
FNDA:700598,_ZSt19__iterator_categoryIPcENSt15iterator_traitsIT_E17iterator_categoryERKS2_
FN:205,_ZSt19__iterator_categoryIPKcENSt15iterator_traitsIT_E17iterator_categoryERKS3_
FNDA:0,_ZSt19__iterator_categoryIPKcENSt15iterator_traitsIT_E17iterator_categoryERKS3_
FN:205,_ZSt19__iterator_categoryIPKNSt7__cxx1112basic_stringIcSt11char_traitsIcESaIcEEEENSt15iterator_traitsIT_E17iterator_categoryERKS9_
FNDA:1,_ZSt19__iterator_categoryIPKNSt7__cxx1112basic_stringIcSt11char_traitsIcESaIcEEEENSt15iterator_traitsIT_E17iterator_categoryERKS9_
DA:205,700598
DA:206,700598
DA:205,0
DA:206,0
DA:205,1
DA:206,1
end_of_record
SF:/usr/include/gtest/internal/gtest-port.h
FN:957,_ZN7testing8internal8GTestLog9GetStreamEv
FNDA:0,_ZN7testing8internal8GTestLog9GetStreamEv
DA:957,0
end_of_record
SF:/usr/include/c++/9/bits/stl_tree.h
FN:146,_ZNSt20_Rb_tree_key_compareISt4lessINSt7__cxx1112basic_stringIcSt11char_traitsIcESaIcEEEEEC2Ev
FNDA:200065,_ZNSt20_Rb_tree_key_compareISt4lessINSt7__cxx1112basic_stringIcSt11char_traitsIcESaIcEEEEEC2Ev
FN:173,_ZNSt15_Rb_tree_headerC2Ev
FNDA:200065,_ZNSt15_Rb_tree_headerC2Ev
FN:206,_ZNSt15_Rb_tree_header8_M_resetEv
FNDA:200065,_ZNSt15_Rb_tree_header8_M_resetEv
FN:234,_ZNSt13_Rb_tree_nodeISt4pairIKNSt7__cxx1112basic_stringIcSt11char_traitsIcESaIcEEExEE9_M_valptrEv
FNDA:16,_ZNSt13_Rb_tree_nodeISt4pairIKNSt7__cxx1112basic_stringIcSt11char_traitsIcESaIcEEExEE9_M_valptrEv
FN:234,_ZNSt13_Rb_tree_nodeISt4pairIKNSt7__cxx1112basic_stringIcSt11char_traitsIcESaIcEEES6_EE9_M_valptrEv
FNDA:6,_ZNSt13_Rb_tree_nodeISt4pairIKNSt7__cxx1112basic_stringIcSt11char_traitsIcESaIcEEES6_EE9_M_valptrEv
FN:234,_ZNSt13_Rb_tree_nodeISt4pairIKNSt7__cxx1112basic_stringIcSt11char_traitsIcESaIcEEESt10shared_ptrI16default_functionEEE9_M_valptrEv
FNDA:200238,_ZNSt13_Rb_tree_nodeISt4pairIKNSt7__cxx1112basic_stringIcSt11char_traitsIcESaIcEEESt10shared_ptrI16default_functionEEE9_M_valptrEv
FN:238,_ZNKSt13_Rb_tree_nodeISt4pairIKNSt7__cxx1112basic_stringIcSt11char_traitsIcESaIcEEExEE9_M_valptrEv
FNDA:13,_ZNKSt13_Rb_tree_nodeISt4pairIKNSt7__cxx1112basic_stringIcSt11char_traitsIcESaIcEEExEE9_M_valptrEv
FN:238,_ZNKSt13_Rb_tree_nodeISt4pairIKNSt7__cxx1112basic_stringIcSt11char_traitsIcESaIcEEES6_EE9_M_valptrEv
FNDA:6,_ZNKSt13_Rb_tree_nodeISt4pairIKNSt7__cxx1112basic_stringIcSt11char_traitsIcESaIcEEES6_EE9_M_valptrEv
FN:238,_ZNKSt13_Rb_tree_nodeISt4pairIKNSt7__cxx1112basic_stringIcSt11char_traitsIcESaIcEEESt10shared_ptrI16default_functionEEE9_M_valptrEv
FNDA:901120,_ZNKSt13_Rb_tree_nodeISt4pairIKNSt7__cxx1112basic_stringIcSt11char_traitsIcESaIcEEESt10shared_ptrI16default_functionEEE9_M_valptrEv
FN:273,_ZNSt17_Rb_tree_iteratorISt4pairIKNSt7__cxx1112basic_stringIcSt11char_traitsIcESaIcEEExEEC2EPSt18_Rb_tree_node_base
FNDA:34,_ZNSt17_Rb_tree_iteratorISt4pairIKNSt7__cxx1112basic_stringIcSt11char_traitsIcESaIcEEExEEC2EPSt18_Rb_tree_node_base
FN:273,_ZNSt17_Rb_tree_iteratorISt4pairIKNSt7__cxx1112basic_stringIcSt11char_traitsIcESaIcEEES6_EEC2EPSt18_Rb_tree_node_base
FNDA:33,_ZNSt17_Rb_tree_iteratorISt4pairIKNSt7__cxx1112basic_stringIcSt11char_traitsIcESaIcEEES6_EEC2EPSt18_Rb_tree_node_base
FN:273,_ZNSt17_Rb_tree_iteratorISt4pairIKNSt7__cxx1112basic_stringIcSt11char_traitsIcESaIcEEESt10shared_ptrI16default_functionEEEC2EPSt18_Rb_tree_node_base
FNDA:500572,_ZNSt17_Rb_tree_iteratorISt4pairIKNSt7__cxx1112basic_stringIcSt11char_traitsIcESaIcEEESt10shared_ptrI16default_functionEEEC2EPSt18_Rb_tree_node_base
FN:277,_ZNKSt17_Rb_tree_iteratorISt4pairIKNSt7__cxx1112basic_stringIcSt11char_traitsIcESaIcEEExEEdeEv
FNDA:14,_ZNKSt17_Rb_tree_iteratorISt4pairIKNSt7__cxx1112basic_stringIcSt11char_traitsIcESaIcEEExEEdeEv
FN:277,_ZNKSt17_Rb_tree_iteratorISt4pairIKNSt7__cxx1112basic_stringIcSt11char_traitsIcESaIcEEES6_EEdeEv
FNDA:4,_ZNKSt17_Rb_tree_iteratorISt4pairIKNSt7__cxx1112basic_stringIcSt11char_traitsIcESaIcEEES6_EEdeEv
FN:277,_ZNKSt17_Rb_tree_iteratorISt4pairIKNSt7__cxx1112basic_stringIcSt11char_traitsIcESaIcEEESt10shared_ptrI16default_functionEEEdeEv
FNDA:200196,_ZNKSt17_Rb_tree_iteratorISt4pairIKNSt7__cxx1112basic_stringIcSt11char_traitsIcESaIcEEESt10shared_ptrI16default_functionEEEdeEv
FN:300,_ZNSt17_Rb_tree_iteratorISt4pairIKNSt7__cxx1112basic_stringIcSt11char_traitsIcESaIcEEESt10shared_ptrI16default_functionEEEmmEv
FNDA:10,_ZNSt17_Rb_tree_iteratorISt4pairIKNSt7__cxx1112basic_stringIcSt11char_traitsIcESaIcEEESt10shared_ptrI16default_functionEEEmmEv
FN:300,_ZNSt17_Rb_tree_iteratorISt4pairIKNSt7__cxx1112basic_stringIcSt11char_traitsIcESaIcEEExEEmmEv
FNDA:0,_ZNSt17_Rb_tree_iteratorISt4pairIKNSt7__cxx1112basic_stringIcSt11char_traitsIcESaIcEEExEEmmEv
FN:300,_ZNSt17_Rb_tree_iteratorISt4pairIKNSt7__cxx1112basic_stringIcSt11char_traitsIcESaIcEEES6_EEmmEv
FNDA:0,_ZNSt17_Rb_tree_iteratorISt4pairIKNSt7__cxx1112basic_stringIcSt11char_traitsIcESaIcEEES6_EEmmEv
FN:315,_ZSteqRKSt17_Rb_tree_iteratorISt4pairIKNSt7__cxx1112basic_stringIcSt11char_traitsIcESaIcEEES6_EESB_
FNDA:10,_ZSteqRKSt17_Rb_tree_iteratorISt4pairIKNSt7__cxx1112basic_stringIcSt11char_traitsIcESaIcEEES6_EESB_
FN:315,_ZSteqRKSt17_Rb_tree_iteratorISt4pairIKNSt7__cxx1112basic_stringIcSt11char_traitsIcESaIcEEExEESB_
FNDA:13,_ZSteqRKSt17_Rb_tree_iteratorISt4pairIKNSt7__cxx1112basic_stringIcSt11char_traitsIcESaIcEEExEESB_
FN:315,_ZSteqRKSt17_Rb_tree_iteratorISt4pairIKNSt7__cxx1112basic_stringIcSt11char_traitsIcESaIcEEESt10shared_ptrI16default_functionEEESE_
FNDA:200215,_ZSteqRKSt17_Rb_tree_iteratorISt4pairIKNSt7__cxx1112basic_stringIcSt11char_traitsIcESaIcEEESt10shared_ptrI16default_functionEEESE_
FN:319,_ZStneRKSt17_Rb_tree_iteratorISt4pairIKNSt7__cxx1112basic_stringIcSt11char_traitsIcESaIcEEESt10shared_ptrI16default_functionEEESE_
FNDA:100105,_ZStneRKSt17_Rb_tree_iteratorISt4pairIKNSt7__cxx1112basic_stringIcSt11char_traitsIcESaIcEEESt10shared_ptrI16default_functionEEESE_
FN:319,_ZStneRKSt17_Rb_tree_iteratorISt4pairIKNSt7__cxx1112basic_stringIcSt11char_traitsIcESaIcEEExEESB_
FNDA:5,_ZStneRKSt17_Rb_tree_iteratorISt4pairIKNSt7__cxx1112basic_stringIcSt11char_traitsIcESaIcEEExEESB_
FN:319,_ZStneRKSt17_Rb_tree_iteratorISt4pairIKNSt7__cxx1112basic_stringIcSt11char_traitsIcESaIcEEES6_EESB_
FNDA:7,_ZStneRKSt17_Rb_tree_iteratorISt4pairIKNSt7__cxx1112basic_stringIcSt11char_traitsIcESaIcEEES6_EESB_
FN:538,_ZNSt8_Rb_treeINSt7__cxx1112basic_stringIcSt11char_traitsIcESaIcEEESt4pairIKS5_St10shared_ptrI16default_functionEESt10_Select1stISB_ESt4lessIS5_ESaISB_EE11_Alloc_nodeC2ERSH_
FNDA:21,_ZNSt8_Rb_treeINSt7__cxx1112basic_stringIcSt11char_traitsIcESaIcEEESt4pairIKS5_St10shared_ptrI16default_functionEESt10_Select1stISB_ESt4lessIS5_ESaISB_EE11_Alloc_nodeC2ERSH_
FN:538,_ZNSt8_Rb_treeINSt7__cxx1112basic_stringIcSt11char_traitsIcESaIcEEESt4pairIKS5_S5_ESt10_Select1stIS8_ESt4lessIS5_ESaIS8_EE11_Alloc_nodeC2ERSE_
FNDA:1,_ZNSt8_Rb_treeINSt7__cxx1112basic_stringIcSt11char_traitsIcESaIcEEESt4pairIKS5_S5_ESt10_Select1stIS8_ESt4lessIS5_ESaIS8_EE11_Alloc_nodeC2ERSE_
FN:538,_ZNSt8_Rb_treeINSt7__cxx1112basic_stringIcSt11char_traitsIcESaIcEEESt4pairIKS5_xESt10_Select1stIS8_ESt4lessIS5_ESaIS8_EE11_Alloc_nodeC2ERSE_
FNDA:1,_ZNSt8_Rb_treeINSt7__cxx1112basic_stringIcSt11char_traitsIcESaIcEEESt4pairIKS5_xESt10_Select1stIS8_ESt4lessIS5_ESaIS8_EE11_Alloc_nodeC2ERSE_
FN:546,_ZNKSt8_Rb_treeINSt7__cxx1112basic_stringIcSt11char_traitsIcESaIcEEESt4pairIKS5_S5_ESt10_Select1stIS8_ESt4lessIS5_ESaIS8_EE11_Alloc_nodeclIS8_EEPSt13_Rb_tree_nodeIS8_EOT_
FNDA:1,_ZNKSt8_Rb_treeINSt7__cxx1112basic_stringIcSt11char_traitsIcESaIcEEESt4pairIKS5_S5_ESt10_Select1stIS8_ESt4lessIS5_ESaIS8_EE11_Alloc_nodeclIS8_EEPSt13_Rb_tree_nodeIS8_EOT_
FN:546,_ZNKSt8_Rb_treeINSt7__cxx1112basic_stringIcSt11char_traitsIcESaIcEEESt4pairIKS5_St10shared_ptrI16default_functionEESt10_Select1stISB_ESt4lessIS5_ESaISB_EE11_Alloc_nodeclISB_EEPSt13_Rb_tree_nodeISB_EOT_
FNDA:21,_ZNKSt8_Rb_treeINSt7__cxx1112basic_stringIcSt11char_traitsIcESaIcEEESt4pairIKS5_St10shared_ptrI16default_functionEESt10_Select1stISB_ESt4lessIS5_ESaISB_EE11_Alloc_nodeclISB_EEPSt13_Rb_tree_nodeISB_EOT_
FN:546,_ZNKSt8_Rb_treeINSt7__cxx1112basic_stringIcSt11char_traitsIcESaIcEEESt4pairIKS5_xESt10_Select1stIS8_ESt4lessIS5_ESaIS8_EE11_Alloc_nodeclIS8_EEPSt13_Rb_tree_nodeIS8_EOT_
FNDA:1,_ZNKSt8_Rb_treeINSt7__cxx1112basic_stringIcSt11char_traitsIcESaIcEEESt4pairIKS5_xESt10_Select1stIS8_ESt4lessIS5_ESaIS8_EE11_Alloc_nodeclIS8_EEPSt13_Rb_tree_nodeIS8_EOT_
FN:566,_ZNSt8_Rb_treeINSt7__cxx1112basic_stringIcSt11char_traitsIcESaIcEEESt4pairIKS5_S5_ESt10_Select1stIS8_ESt4lessIS5_ESaIS8_EE21_M_get_Node_allocatorEv
FNDA:4,_ZNSt8_Rb_treeINSt7__cxx1112basic_stringIcSt11char_traitsIcESaIcEEESt4pairIKS5_S5_ESt10_Select1stIS8_ESt4lessIS5_ESaIS8_EE21_M_get_Node_allocatorEv
FN:566,_ZNSt8_Rb_treeINSt7__cxx1112basic_stringIcSt11char_traitsIcESaIcEEESt4pairIKS5_St10shared_ptrI16default_functionEESt10_Select1stISB_ESt4lessIS5_ESaISB_EE21_M_get_Node_allocatorEv
FNDA:84,_ZNSt8_Rb_treeINSt7__cxx1112basic_stringIcSt11char_traitsIcESaIcEEESt4pairIKS5_St10shared_ptrI16default_functionEESt10_Select1stISB_ESt4lessIS5_ESaISB_EE21_M_get_Node_allocatorEv
FN:566,_ZNSt8_Rb_treeINSt7__cxx1112basic_stringIcSt11char_traitsIcESaIcEEESt4pairIKS5_xESt10_Select1stIS8_ESt4lessIS5_ESaIS8_EE21_M_get_Node_allocatorEv
FNDA:4,_ZNSt8_Rb_treeINSt7__cxx1112basic_stringIcSt11char_traitsIcESaIcEEESt4pairIKS5_xESt10_Select1stIS8_ESt4lessIS5_ESaIS8_EE21_M_get_Node_allocatorEv
FN:579,_ZNSt8_Rb_treeINSt7__cxx1112basic_stringIcSt11char_traitsIcESaIcEEESt4pairIKS5_xESt10_Select1stIS8_ESt4lessIS5_ESaIS8_EE11_M_get_nodeEv
FNDA:1,_ZNSt8_Rb_treeINSt7__cxx1112basic_stringIcSt11char_traitsIcESaIcEEESt4pairIKS5_xESt10_Select1stIS8_ESt4lessIS5_ESaIS8_EE11_M_get_nodeEv
FN:579,_ZNSt8_Rb_treeINSt7__cxx1112basic_stringIcSt11char_traitsIcESaIcEEESt4pairIKS5_S5_ESt10_Select1stIS8_ESt4lessIS5_ESaIS8_EE11_M_get_nodeEv
FNDA:1,_ZNSt8_Rb_treeINSt7__cxx1112basic_stringIcSt11char_traitsIcESaIcEEESt4pairIKS5_S5_ESt10_Select1stIS8_ESt4lessIS5_ESaIS8_EE11_M_get_nodeEv
FN:579,_ZNSt8_Rb_treeINSt7__cxx1112basic_stringIcSt11char_traitsIcESaIcEEESt4pairIKS5_St10shared_ptrI16default_functionEESt10_Select1stISB_ESt4lessIS5_ESaISB_EE11_M_get_nodeEv
FNDA:21,_ZNSt8_Rb_treeINSt7__cxx1112basic_stringIcSt11char_traitsIcESaIcEEESt4pairIKS5_St10shared_ptrI16default_functionEESt10_Select1stISB_ESt4lessIS5_ESaISB_EE11_M_get_nodeEv
FN:583,_ZNSt8_Rb_treeINSt7__cxx1112basic_stringIcSt11char_traitsIcESaIcEEESt4pairIKS5_S5_ESt10_Select1stIS8_ESt4lessIS5_ESaIS8_EE11_M_put_nodeEPSt13_Rb_tree_nodeIS8_E
FNDA:1,_ZNSt8_Rb_treeINSt7__cxx1112basic_stringIcSt11char_traitsIcESaIcEEESt4pairIKS5_S5_ESt10_Select1stIS8_ESt4lessIS5_ESaIS8_EE11_M_put_nodeEPSt13_Rb_tree_nodeIS8_E
FN:583,_ZNSt8_Rb_treeINSt7__cxx1112basic_stringIcSt11char_traitsIcESaIcEEESt4pairIKS5_xESt10_Select1stIS8_ESt4lessIS5_ESaIS8_EE11_M_put_nodeEPSt13_Rb_tree_nodeIS8_E
FNDA:1,_ZNSt8_Rb_treeINSt7__cxx1112basic_stringIcSt11char_traitsIcESaIcEEESt4pairIKS5_xESt10_Select1stIS8_ESt4lessIS5_ESaIS8_EE11_M_put_nodeEPSt13_Rb_tree_nodeIS8_E
FN:583,_ZNSt8_Rb_treeINSt7__cxx1112basic_stringIcSt11char_traitsIcESaIcEEESt4pairIKS5_St10shared_ptrI16default_functionEESt10_Select1stISB_ESt4lessIS5_ESaISB_EE11_M_put_nodeEPSt13_Rb_tree_nodeISB_E
FNDA:21,_ZNSt8_Rb_treeINSt7__cxx1112basic_stringIcSt11char_traitsIcESaIcEEESt4pairIKS5_St10shared_ptrI16default_functionEESt10_Select1stISB_ESt4lessIS5_ESaISB_EE11_M_put_nodeEPSt13_Rb_tree_nodeISB_E
FN:609,_ZNSt8_Rb_treeINSt7__cxx1112basic_stringIcSt11char_traitsIcESaIcEEESt4pairIKS5_xESt10_Select1stIS8_ESt4lessIS5_ESaIS8_EE17_M_construct_nodeIJS8_EEEvPSt13_Rb_tree_nodeIS8_EDpOT_
FNDA:1,_ZNSt8_Rb_treeINSt7__cxx1112basic_stringIcSt11char_traitsIcESaIcEEESt4pairIKS5_xESt10_Select1stIS8_ESt4lessIS5_ESaIS8_EE17_M_construct_nodeIJS8_EEEvPSt13_Rb_tree_nodeIS8_EDpOT_
FN:609,_ZNSt8_Rb_treeINSt7__cxx1112basic_stringIcSt11char_traitsIcESaIcEEESt4pairIKS5_S5_ESt10_Select1stIS8_ESt4lessIS5_ESaIS8_EE17_M_construct_nodeIJS8_EEEvPSt13_Rb_tree_nodeIS8_EDpOT_
FNDA:1,_ZNSt8_Rb_treeINSt7__cxx1112basic_stringIcSt11char_traitsIcESaIcEEESt4pairIKS5_S5_ESt10_Select1stIS8_ESt4lessIS5_ESaIS8_EE17_M_construct_nodeIJS8_EEEvPSt13_Rb_tree_nodeIS8_EDpOT_
FN:609,_ZNSt8_Rb_treeINSt7__cxx1112basic_stringIcSt11char_traitsIcESaIcEEESt4pairIKS5_St10shared_ptrI16default_functionEESt10_Select1stISB_ESt4lessIS5_ESaISB_EE17_M_construct_nodeIJSB_EEEvPSt13_Rb_tree_nodeISB_EDpOT_
FNDA:21,_ZNSt8_Rb_treeINSt7__cxx1112basic_stringIcSt11char_traitsIcESaIcEEESt4pairIKS5_St10shared_ptrI16default_functionEESt10_Select1stISB_ESt4lessIS5_ESaISB_EE17_M_construct_nodeIJSB_EEEvPSt13_Rb_tree_nodeISB_EDpOT_
FN:628,_ZNSt8_Rb_treeINSt7__cxx1112basic_stringIcSt11char_traitsIcESaIcEEESt4pairIKS5_xESt10_Select1stIS8_ESt4lessIS5_ESaIS8_EE14_M_create_nodeIJS8_EEEPSt13_Rb_tree_nodeIS8_EDpOT_
FNDA:1,_ZNSt8_Rb_treeINSt7__cxx1112basic_stringIcSt11char_traitsIcESaIcEEESt4pairIKS5_xESt10_Select1stIS8_ESt4lessIS5_ESaIS8_EE14_M_create_nodeIJS8_EEEPSt13_Rb_tree_nodeIS8_EDpOT_
FN:628,_ZNSt8_Rb_treeINSt7__cxx1112basic_stringIcSt11char_traitsIcESaIcEEESt4pairIKS5_St10shared_ptrI16default_functionEESt10_Select1stISB_ESt4lessIS5_ESaISB_EE14_M_create_nodeIJSB_EEEPSt13_Rb_tree_nodeISB_EDpOT_
FNDA:21,_ZNSt8_Rb_treeINSt7__cxx1112basic_stringIcSt11char_traitsIcESaIcEEESt4pairIKS5_St10shared_ptrI16default_functionEESt10_Select1stISB_ESt4lessIS5_ESaISB_EE14_M_create_nodeIJSB_EEEPSt13_Rb_tree_nodeISB_EDpOT_
FN:628,_ZNSt8_Rb_treeINSt7__cxx1112basic_stringIcSt11char_traitsIcESaIcEEESt4pairIKS5_S5_ESt10_Select1stIS8_ESt4lessIS5_ESaIS8_EE14_M_create_nodeIJS8_EEEPSt13_Rb_tree_nodeIS8_EDpOT_
FNDA:1,_ZNSt8_Rb_treeINSt7__cxx1112basic_stringIcSt11char_traitsIcESaIcEEESt4pairIKS5_S5_ESt10_Select1stIS8_ESt4lessIS5_ESaIS8_EE14_M_create_nodeIJS8_EEEPSt13_Rb_tree_nodeIS8_EDpOT_
FN:637,_ZNSt8_Rb_treeINSt7__cxx1112basic_stringIcSt11char_traitsIcESaIcEEESt4pairIKS5_St10shared_ptrI16default_functionEESt10_Select1stISB_ESt4lessIS5_ESaISB_EE15_M_destroy_nodeEPSt13_Rb_tree_nodeISB_E
FNDA:21,_ZNSt8_Rb_treeINSt7__cxx1112basic_stringIcSt11char_traitsIcESaIcEEESt4pairIKS5_St10shared_ptrI16default_functionEESt10_Select1stISB_ESt4lessIS5_ESaISB_EE15_M_destroy_nodeEPSt13_Rb_tree_nodeISB_E
FN:637,_ZNSt8_Rb_treeINSt7__cxx1112basic_stringIcSt11char_traitsIcESaIcEEESt4pairIKS5_S5_ESt10_Select1stIS8_ESt4lessIS5_ESaIS8_EE15_M_destroy_nodeEPSt13_Rb_tree_nodeIS8_E
FNDA:1,_ZNSt8_Rb_treeINSt7__cxx1112basic_stringIcSt11char_traitsIcESaIcEEESt4pairIKS5_S5_ESt10_Select1stIS8_ESt4lessIS5_ESaIS8_EE15_M_destroy_nodeEPSt13_Rb_tree_nodeIS8_E
FN:637,_ZNSt8_Rb_treeINSt7__cxx1112basic_stringIcSt11char_traitsIcESaIcEEESt4pairIKS5_xESt10_Select1stIS8_ESt4lessIS5_ESaIS8_EE15_M_destroy_nodeEPSt13_Rb_tree_nodeIS8_E
FNDA:1,_ZNSt8_Rb_treeINSt7__cxx1112basic_stringIcSt11char_traitsIcESaIcEEESt4pairIKS5_xESt10_Select1stIS8_ESt4lessIS5_ESaIS8_EE15_M_destroy_nodeEPSt13_Rb_tree_nodeIS8_E
FN:648,_ZNSt8_Rb_treeINSt7__cxx1112basic_stringIcSt11char_traitsIcESaIcEEESt4pairIKS5_St10shared_ptrI16default_functionEESt10_Select1stISB_ESt4lessIS5_ESaISB_EE12_M_drop_nodeEPSt13_Rb_tree_nodeISB_E
FNDA:21,_ZNSt8_Rb_treeINSt7__cxx1112basic_stringIcSt11char_traitsIcESaIcEEESt4pairIKS5_St10shared_ptrI16default_functionEESt10_Select1stISB_ESt4lessIS5_ESaISB_EE12_M_drop_nodeEPSt13_Rb_tree_nodeISB_E
FN:648,_ZNSt8_Rb_treeINSt7__cxx1112basic_stringIcSt11char_traitsIcESaIcEEESt4pairIKS5_S5_ESt10_Select1stIS8_ESt4lessIS5_ESaIS8_EE12_M_drop_nodeEPSt13_Rb_tree_nodeIS8_E
FNDA:1,_ZNSt8_Rb_treeINSt7__cxx1112basic_stringIcSt11char_traitsIcESaIcEEESt4pairIKS5_S5_ESt10_Select1stIS8_ESt4lessIS5_ESaIS8_EE12_M_drop_nodeEPSt13_Rb_tree_nodeIS8_E
FN:648,_ZNSt8_Rb_treeINSt7__cxx1112basic_stringIcSt11char_traitsIcESaIcEEESt4pairIKS5_xESt10_Select1stIS8_ESt4lessIS5_ESaIS8_EE12_M_drop_nodeEPSt13_Rb_tree_nodeIS8_E
FNDA:1,_ZNSt8_Rb_treeINSt7__cxx1112basic_stringIcSt11char_traitsIcESaIcEEESt4pairIKS5_xESt10_Select1stIS8_ESt4lessIS5_ESaIS8_EE12_M_drop_nodeEPSt13_Rb_tree_nodeIS8_E
FN:680,_ZNSt8_Rb_treeINSt7__cxx1112basic_stringIcSt11char_traitsIcESaIcEEESt4pairIKS5_S5_ESt10_Select1stIS8_ESt4lessIS5_ESaIS8_EE13_Rb_tree_implISC_Lb1EEC2Ev
FNDA:100032,_ZNSt8_Rb_treeINSt7__cxx1112basic_stringIcSt11char_traitsIcESaIcEEESt4pairIKS5_S5_ESt10_Select1stIS8_ESt4lessIS5_ESaIS8_EE13_Rb_tree_implISC_Lb1EEC2Ev
FN:680,_ZNSt8_Rb_treeINSt7__cxx1112basic_stringIcSt11char_traitsIcESaIcEEESt4pairIKS5_St10shared_ptrI16default_functionEESt10_Select1stISB_ESt4lessIS5_ESaISB_EE13_Rb_tree_implISF_Lb1EEC2Ev
FNDA:1,_ZNSt8_Rb_treeINSt7__cxx1112basic_stringIcSt11char_traitsIcESaIcEEESt4pairIKS5_St10shared_ptrI16default_functionEESt10_Select1stISB_ESt4lessIS5_ESaISB_EE13_Rb_tree_implISF_Lb1EEC2Ev
FN:680,_ZNSt8_Rb_treeINSt7__cxx1112basic_stringIcSt11char_traitsIcESaIcEEESt4pairIKS5_xESt10_Select1stIS8_ESt4lessIS5_ESaIS8_EE13_Rb_tree_implISC_Lb1EEC2Ev
FNDA:100032,_ZNSt8_Rb_treeINSt7__cxx1112basic_stringIcSt11char_traitsIcESaIcEEESt4pairIKS5_xESt10_Select1stIS8_ESt4lessIS5_ESaIS8_EE13_Rb_tree_implISC_Lb1EEC2Ev
FN:749,_ZNSt8_Rb_treeINSt7__cxx1112basic_stringIcSt11char_traitsIcESaIcEEESt4pairIKS5_St10shared_ptrI16default_functionEESt10_Select1stISB_ESt4lessIS5_ESaISB_EE8_M_beginEv
FNDA:200225,_ZNSt8_Rb_treeINSt7__cxx1112basic_stringIcSt11char_traitsIcESaIcEEESt4pairIKS5_St10shared_ptrI16default_functionEESt10_Select1stISB_ESt4lessIS5_ESaISB_EE8_M_beginEv
FN:749,_ZNSt8_Rb_treeINSt7__cxx1112basic_stringIcSt11char_traitsIcESaIcEEESt4pairIKS5_S5_ESt10_Select1stIS8_ESt4lessIS5_ESaIS8_EE8_M_beginEv
FNDA:100042,_ZNSt8_Rb_treeINSt7__cxx1112basic_stringIcSt11char_traitsIcESaIcEEESt4pairIKS5_S5_ESt10_Select1stIS8_ESt4lessIS5_ESaIS8_EE8_M_beginEv
FN:749,_ZNSt8_Rb_treeINSt7__cxx1112basic_stringIcSt11char_traitsIcESaIcEEESt4pairIKS5_xESt10_Select1stIS8_ESt4lessIS5_ESaIS8_EE8_M_beginEv
FNDA:100045,_ZNSt8_Rb_treeINSt7__cxx1112basic_stringIcSt11char_traitsIcESaIcEEESt4pairIKS5_xESt10_Select1stIS8_ESt4lessIS5_ESaIS8_EE8_M_beginEv
FN:760,_ZNSt8_Rb_treeINSt7__cxx1112basic_stringIcSt11char_traitsIcESaIcEEESt4pairIKS5_S5_ESt10_Select1stIS8_ESt4lessIS5_ESaIS8_EE6_M_endEv
FNDA:11,_ZNSt8_Rb_treeINSt7__cxx1112basic_stringIcSt11char_traitsIcESaIcEEESt4pairIKS5_S5_ESt10_Select1stIS8_ESt4lessIS5_ESaIS8_EE6_M_endEv
FN:760,_ZNSt8_Rb_treeINSt7__cxx1112basic_stringIcSt11char_traitsIcESaIcEEESt4pairIKS5_xESt10_Select1stIS8_ESt4lessIS5_ESaIS8_EE6_M_endEv
FNDA:14,_ZNSt8_Rb_treeINSt7__cxx1112basic_stringIcSt11char_traitsIcESaIcEEESt4pairIKS5_xESt10_Select1stIS8_ESt4lessIS5_ESaIS8_EE6_M_endEv
FN:760,_ZNSt8_Rb_treeINSt7__cxx1112basic_stringIcSt11char_traitsIcESaIcEEESt4pairIKS5_St10shared_ptrI16default_functionEESt10_Select1stISB_ESt4lessIS5_ESaISB_EE6_M_endEv
FNDA:200245,_ZNSt8_Rb_treeINSt7__cxx1112basic_stringIcSt11char_traitsIcESaIcEEESt4pairIKS5_St10shared_ptrI16default_functionEESt10_Select1stISB_ESt4lessIS5_ESaISB_EE6_M_endEv
FN:772,_ZNSt8_Rb_treeINSt7__cxx1112basic_stringIcSt11char_traitsIcESaIcEEESt4pairIKS5_S5_ESt10_Select1stIS8_ESt4lessIS5_ESaIS8_EE6_S_keyEPKSt13_Rb_tree_nodeIS8_E
FNDA:6,_ZNSt8_Rb_treeINSt7__cxx1112basic_stringIcSt11char_traitsIcESaIcEEESt4pairIKS5_S5_ESt10_Select1stIS8_ESt4lessIS5_ESaIS8_EE6_S_keyEPKSt13_Rb_tree_nodeIS8_E
FN:772,_ZNSt8_Rb_treeINSt7__cxx1112basic_stringIcSt11char_traitsIcESaIcEEESt4pairIKS5_St10shared_ptrI16default_functionEESt10_Select1stISB_ESt4lessIS5_ESaISB_EE6_S_keyEPKSt13_Rb_tree_nodeISB_E
FNDA:901120,_ZNSt8_Rb_treeINSt7__cxx1112basic_stringIcSt11char_traitsIcESaIcEEESt4pairIKS5_St10shared_ptrI16default_functionEESt10_Select1stISB_ESt4lessIS5_ESaISB_EE6_S_keyEPKSt13_Rb_tree_nodeISB_E
FN:772,_ZNSt8_Rb_treeINSt7__cxx1112basic_stringIcSt11char_traitsIcESaIcEEESt4pairIKS5_xESt10_Select1stIS8_ESt4lessIS5_ESaIS8_EE6_S_keyEPKSt13_Rb_tree_nodeIS8_E
FNDA:13,_ZNSt8_Rb_treeINSt7__cxx1112basic_stringIcSt11char_traitsIcESaIcEEESt4pairIKS5_xESt10_Select1stIS8_ESt4lessIS5_ESaIS8_EE6_S_keyEPKSt13_Rb_tree_nodeIS8_E
FN:794,_ZNSt8_Rb_treeINSt7__cxx1112basic_stringIcSt11char_traitsIcESaIcEEESt4pairIKS5_S5_ESt10_Select1stIS8_ESt4lessIS5_ESaIS8_EE7_S_leftEPSt18_Rb_tree_node_base
FNDA:5,_ZNSt8_Rb_treeINSt7__cxx1112basic_stringIcSt11char_traitsIcESaIcEEESt4pairIKS5_S5_ESt10_Select1stIS8_ESt4lessIS5_ESaIS8_EE7_S_leftEPSt18_Rb_tree_node_base
FN:794,_ZNSt8_Rb_treeINSt7__cxx1112basic_stringIcSt11char_traitsIcESaIcEEESt4pairIKS5_xESt10_Select1stIS8_ESt4lessIS5_ESaIS8_EE7_S_leftEPSt18_Rb_tree_node_base
FNDA:11,_ZNSt8_Rb_treeINSt7__cxx1112basic_stringIcSt11char_traitsIcESaIcEEESt4pairIKS5_xESt10_Select1stIS8_ESt4lessIS5_ESaIS8_EE7_S_leftEPSt18_Rb_tree_node_base
FN:794,_ZNSt8_Rb_treeINSt7__cxx1112basic_stringIcSt11char_traitsIcESaIcEEESt4pairIKS5_St10shared_ptrI16default_functionEESt10_Select1stISB_ESt4lessIS5_ESaISB_EE7_S_leftEPSt18_Rb_tree_node_base
FNDA:400511,_ZNSt8_Rb_treeINSt7__cxx1112basic_stringIcSt11char_traitsIcESaIcEEESt4pairIKS5_St10shared_ptrI16default_functionEESt10_Select1stISB_ESt4lessIS5_ESaISB_EE7_S_leftEPSt18_Rb_tree_node_base
FN:802,_ZNSt8_Rb_treeINSt7__cxx1112basic_stringIcSt11char_traitsIcESaIcEEESt4pairIKS5_St10shared_ptrI16default_functionEESt10_Select1stISB_ESt4lessIS5_ESaISB_EE8_S_rightEPSt18_Rb_tree_node_base
FNDA:400507,_ZNSt8_Rb_treeINSt7__cxx1112basic_stringIcSt11char_traitsIcESaIcEEESt4pairIKS5_St10shared_ptrI16default_functionEESt10_Select1stISB_ESt4lessIS5_ESaISB_EE8_S_rightEPSt18_Rb_tree_node_base
FN:802,_ZNSt8_Rb_treeINSt7__cxx1112basic_stringIcSt11char_traitsIcESaIcEEESt4pairIKS5_xESt10_Select1stIS8_ESt4lessIS5_ESaIS8_EE8_S_rightEPSt18_Rb_tree_node_base
FNDA:1,_ZNSt8_Rb_treeINSt7__cxx1112basic_stringIcSt11char_traitsIcESaIcEEESt4pairIKS5_xESt10_Select1stIS8_ESt4lessIS5_ESaIS8_EE8_S_rightEPSt18_Rb_tree_node_base
FN:802,_ZNSt8_Rb_treeINSt7__cxx1112basic_stringIcSt11char_traitsIcESaIcEEESt4pairIKS5_S5_ESt10_Select1stIS8_ESt4lessIS5_ESaIS8_EE8_S_rightEPSt18_Rb_tree_node_base
FNDA:1,_ZNSt8_Rb_treeINSt7__cxx1112basic_stringIcSt11char_traitsIcESaIcEEESt4pairIKS5_S5_ESt10_Select1stIS8_ESt4lessIS5_ESaIS8_EE8_S_rightEPSt18_Rb_tree_node_base
FN:814,_ZNSt8_Rb_treeINSt7__cxx1112basic_stringIcSt11char_traitsIcESaIcEEESt4pairIKS5_St10shared_ptrI16default_functionEESt10_Select1stISB_ESt4lessIS5_ESaISB_EE6_S_keyEPKSt18_Rb_tree_node_base
FNDA:100144,_ZNSt8_Rb_treeINSt7__cxx1112basic_stringIcSt11char_traitsIcESaIcEEESt4pairIKS5_St10shared_ptrI16default_functionEESt10_Select1stISB_ESt4lessIS5_ESaISB_EE6_S_keyEPKSt18_Rb_tree_node_base
FN:814,_ZNSt8_Rb_treeINSt7__cxx1112basic_stringIcSt11char_traitsIcESaIcEEESt4pairIKS5_xESt10_Select1stIS8_ESt4lessIS5_ESaIS8_EE6_S_keyEPKSt18_Rb_tree_node_base
FNDA:3,_ZNSt8_Rb_treeINSt7__cxx1112basic_stringIcSt11char_traitsIcESaIcEEESt4pairIKS5_xESt10_Select1stIS8_ESt4lessIS5_ESaIS8_EE6_S_keyEPKSt18_Rb_tree_node_base
FN:814,_ZNSt8_Rb_treeINSt7__cxx1112basic_stringIcSt11char_traitsIcESaIcEEESt4pairIKS5_S5_ESt10_Select1stIS8_ESt4lessIS5_ESaIS8_EE6_S_keyEPKSt18_Rb_tree_node_base
FNDA:2,_ZNSt8_Rb_treeINSt7__cxx1112basic_stringIcSt11char_traitsIcESaIcEEESt4pairIKS5_S5_ESt10_Select1stIS8_ESt4lessIS5_ESaIS8_EE6_S_keyEPKSt18_Rb_tree_node_base
FN:944,_ZNSt8_Rb_treeINSt7__cxx1112basic_stringIcSt11char_traitsIcESaIcEEESt4pairIKS5_St10shared_ptrI16default_functionEESt10_Select1stISB_ESt4lessIS5_ESaISB_EEC2Ev
FNDA:1,_ZNSt8_Rb_treeINSt7__cxx1112basic_stringIcSt11char_traitsIcESaIcEEESt4pairIKS5_St10shared_ptrI16default_functionEESt10_Select1stISB_ESt4lessIS5_ESaISB_EEC2Ev
FN:944,_ZNSt8_Rb_treeINSt7__cxx1112basic_stringIcSt11char_traitsIcESaIcEEESt4pairIKS5_S5_ESt10_Select1stIS8_ESt4lessIS5_ESaIS8_EEC2Ev
FNDA:100032,_ZNSt8_Rb_treeINSt7__cxx1112basic_stringIcSt11char_traitsIcESaIcEEESt4pairIKS5_S5_ESt10_Select1stIS8_ESt4lessIS5_ESaIS8_EEC2Ev
FN:944,_ZNSt8_Rb_treeINSt7__cxx1112basic_stringIcSt11char_traitsIcESaIcEEESt4pairIKS5_xESt10_Select1stIS8_ESt4lessIS5_ESaIS8_EEC2Ev
FNDA:100032,_ZNSt8_Rb_treeINSt7__cxx1112basic_stringIcSt11char_traitsIcESaIcEEESt4pairIKS5_xESt10_Select1stIS8_ESt4lessIS5_ESaIS8_EEC2Ev
FN:999,_ZNSt8_Rb_treeINSt7__cxx1112basic_stringIcSt11char_traitsIcESaIcEEESt4pairIKS5_S5_ESt10_Select1stIS8_ESt4lessIS5_ESaIS8_EED2Ev
FNDA:100032,_ZNSt8_Rb_treeINSt7__cxx1112basic_stringIcSt11char_traitsIcESaIcEEESt4pairIKS5_S5_ESt10_Select1stIS8_ESt4lessIS5_ESaIS8_EED2Ev
FN:999,_ZNSt8_Rb_treeINSt7__cxx1112basic_stringIcSt11char_traitsIcESaIcEEESt4pairIKS5_xESt10_Select1stIS8_ESt4lessIS5_ESaIS8_EED2Ev
FNDA:100032,_ZNSt8_Rb_treeINSt7__cxx1112basic_stringIcSt11char_traitsIcESaIcEEESt4pairIKS5_xESt10_Select1stIS8_ESt4lessIS5_ESaIS8_EED2Ev
FN:999,_ZNSt8_Rb_treeINSt7__cxx1112basic_stringIcSt11char_traitsIcESaIcEEESt4pairIKS5_St10shared_ptrI16default_functionEESt10_Select1stISB_ESt4lessIS5_ESaISB_EED2Ev
FNDA:1,_ZNSt8_Rb_treeINSt7__cxx1112basic_stringIcSt11char_traitsIcESaIcEEESt4pairIKS5_St10shared_ptrI16default_functionEESt10_Select1stISB_ESt4lessIS5_ESaISB_EED2Ev
FN:1007,_ZNKSt8_Rb_treeINSt7__cxx1112basic_stringIcSt11char_traitsIcESaIcEEESt4pairIKS5_S5_ESt10_Select1stIS8_ESt4lessIS5_ESaIS8_EE8key_compEv
FNDA:2,_ZNKSt8_Rb_treeINSt7__cxx1112basic_stringIcSt11char_traitsIcESaIcEEESt4pairIKS5_S5_ESt10_Select1stIS8_ESt4lessIS5_ESaIS8_EE8key_compEv
FN:1007,_ZNKSt8_Rb_treeINSt7__cxx1112basic_stringIcSt11char_traitsIcESaIcEEESt4pairIKS5_xESt10_Select1stIS8_ESt4lessIS5_ESaIS8_EE8key_compEv
FNDA:7,_ZNKSt8_Rb_treeINSt7__cxx1112basic_stringIcSt11char_traitsIcESaIcEEESt4pairIKS5_xESt10_Select1stIS8_ESt4lessIS5_ESaIS8_EE8key_compEv
FN:1007,_ZNKSt8_Rb_treeINSt7__cxx1112basic_stringIcSt11char_traitsIcESaIcEEESt4pairIKS5_St10shared_ptrI16default_functionEESt10_Select1stISB_ESt4lessIS5_ESaISB_EE8key_compEv
FNDA:100098,_ZNKSt8_Rb_treeINSt7__cxx1112basic_stringIcSt11char_traitsIcESaIcEEESt4pairIKS5_St10shared_ptrI16default_functionEESt10_Select1stISB_ESt4lessIS5_ESaISB_EE8key_compEv
FN:1011,_ZNSt8_Rb_treeINSt7__cxx1112basic_stringIcSt11char_traitsIcESaIcEEESt4pairIKS5_S5_ESt10_Select1stIS8_ESt4lessIS5_ESaIS8_EE5beginEv
FNDA:1,_ZNSt8_Rb_treeINSt7__cxx1112basic_stringIcSt11char_traitsIcESaIcEEESt4pairIKS5_S5_ESt10_Select1stIS8_ESt4lessIS5_ESaIS8_EE5beginEv
FN:1011,_ZNSt8_Rb_treeINSt7__cxx1112basic_stringIcSt11char_traitsIcESaIcEEESt4pairIKS5_xESt10_Select1stIS8_ESt4lessIS5_ESaIS8_EE5beginEv
FNDA:1,_ZNSt8_Rb_treeINSt7__cxx1112basic_stringIcSt11char_traitsIcESaIcEEESt4pairIKS5_xESt10_Select1stIS8_ESt4lessIS5_ESaIS8_EE5beginEv
FN:1011,_ZNSt8_Rb_treeINSt7__cxx1112basic_stringIcSt11char_traitsIcESaIcEEESt4pairIKS5_St10shared_ptrI16default_functionEESt10_Select1stISB_ESt4lessIS5_ESaISB_EE5beginEv
FNDA:12,_ZNSt8_Rb_treeINSt7__cxx1112basic_stringIcSt11char_traitsIcESaIcEEESt4pairIKS5_St10shared_ptrI16default_functionEESt10_Select1stISB_ESt4lessIS5_ESaISB_EE5beginEv
FN:1019,_ZNSt8_Rb_treeINSt7__cxx1112basic_stringIcSt11char_traitsIcESaIcEEESt4pairIKS5_xESt10_Select1stIS8_ESt4lessIS5_ESaIS8_EE3endEv
FNDA:19,_ZNSt8_Rb_treeINSt7__cxx1112basic_stringIcSt11char_traitsIcESaIcEEESt4pairIKS5_xESt10_Select1stIS8_ESt4lessIS5_ESaIS8_EE3endEv
FN:1019,_ZNSt8_Rb_treeINSt7__cxx1112basic_stringIcSt11char_traitsIcESaIcEEESt4pairIKS5_St10shared_ptrI16default_functionEESt10_Select1stISB_ESt4lessIS5_ESaISB_EE3endEv
FNDA:300315,_ZNSt8_Rb_treeINSt7__cxx1112basic_stringIcSt11char_traitsIcESaIcEEESt4pairIKS5_St10shared_ptrI16default_functionEESt10_Select1stISB_ESt4lessIS5_ESaISB_EE3endEv
FN:1019,_ZNSt8_Rb_treeINSt7__cxx1112basic_stringIcSt11char_traitsIcESaIcEEESt4pairIKS5_S5_ESt10_Select1stIS8_ESt4lessIS5_ESaIS8_EE3endEv
FNDA:21,_ZNSt8_Rb_treeINSt7__cxx1112basic_stringIcSt11char_traitsIcESaIcEEESt4pairIKS5_S5_ESt10_Select1stIS8_ESt4lessIS5_ESaIS8_EE3endEv
FN:1286,_ZNSt8_Rb_treeINSt7__cxx1112basic_stringIcSt11char_traitsIcESaIcEEESt4pairIKS5_St10shared_ptrI16default_functionEESt10_Select1stISB_ESt4lessIS5_ESaISB_EE11lower_boundERS7_
FNDA:100098,_ZNSt8_Rb_treeINSt7__cxx1112basic_stringIcSt11char_traitsIcESaIcEEESt4pairIKS5_St10shared_ptrI16default_functionEESt10_Select1stISB_ESt4lessIS5_ESaISB_EE11lower_boundERS7_
FN:1286,_ZNSt8_Rb_treeINSt7__cxx1112basic_stringIcSt11char_traitsIcESaIcEEESt4pairIKS5_xESt10_Select1stIS8_ESt4lessIS5_ESaIS8_EE11lower_boundERS7_
FNDA:7,_ZNSt8_Rb_treeINSt7__cxx1112basic_stringIcSt11char_traitsIcESaIcEEESt4pairIKS5_xESt10_Select1stIS8_ESt4lessIS5_ESaIS8_EE11lower_boundERS7_
FN:1286,_ZNSt8_Rb_treeINSt7__cxx1112basic_stringIcSt11char_traitsIcESaIcEEESt4pairIKS5_S5_ESt10_Select1stIS8_ESt4lessIS5_ESaIS8_EE11lower_boundERS7_
FNDA:2,_ZNSt8_Rb_treeINSt7__cxx1112basic_stringIcSt11char_traitsIcESaIcEEESt4pairIKS5_S5_ESt10_Select1stIS8_ESt4lessIS5_ESaIS8_EE11lower_boundERS7_
FN:1802,_ZNSt8_Rb_treeINSt7__cxx1112basic_stringIcSt11char_traitsIcESaIcEEESt4pairIKS5_xESt10_Select1stIS8_ESt4lessIS5_ESaIS8_EE10_M_insert_IS8_NSE_11_Alloc_nodeEEESt17_Rb_tree_iteratorIS8_EPSt18_Rb_tree_node_baseSK_OT_RT0_
FNDA:1,_ZNSt8_Rb_treeINSt7__cxx1112basic_stringIcSt11char_traitsIcESaIcEEESt4pairIKS5_xESt10_Select1stIS8_ESt4lessIS5_ESaIS8_EE10_M_insert_IS8_NSE_11_Alloc_nodeEEESt17_Rb_tree_iteratorIS8_EPSt18_Rb_tree_node_baseSK_OT_RT0_
FN:1802,_ZNSt8_Rb_treeINSt7__cxx1112basic_stringIcSt11char_traitsIcESaIcEEESt4pairIKS5_S5_ESt10_Select1stIS8_ESt4lessIS5_ESaIS8_EE10_M_insert_IS8_NSE_11_Alloc_nodeEEESt17_Rb_tree_iteratorIS8_EPSt18_Rb_tree_node_baseSK_OT_RT0_
FNDA:1,_ZNSt8_Rb_treeINSt7__cxx1112basic_stringIcSt11char_traitsIcESaIcEEESt4pairIKS5_S5_ESt10_Select1stIS8_ESt4lessIS5_ESaIS8_EE10_M_insert_IS8_NSE_11_Alloc_nodeEEESt17_Rb_tree_iteratorIS8_EPSt18_Rb_tree_node_baseSK_OT_RT0_
FN:1802,_ZNSt8_Rb_treeINSt7__cxx1112basic_stringIcSt11char_traitsIcESaIcEEESt4pairIKS5_St10shared_ptrI16default_functionEESt10_Select1stISB_ESt4lessIS5_ESaISB_EE10_M_insert_ISB_NSH_11_Alloc_nodeEEESt17_Rb_tree_iteratorISB_EPSt18_Rb_tree_node_baseSN_OT_RT0_
FNDA:21,_ZNSt8_Rb_treeINSt7__cxx1112basic_stringIcSt11char_traitsIcESaIcEEESt4pairIKS5_St10shared_ptrI16default_functionEESt10_Select1stISB_ESt4lessIS5_ESaISB_EE10_M_insert_ISB_NSH_11_Alloc_nodeEEESt17_Rb_tree_iteratorISB_EPSt18_Rb_tree_node_baseSN_OT_RT0_
FN:1912,_ZNSt8_Rb_treeINSt7__cxx1112basic_stringIcSt11char_traitsIcESaIcEEESt4pairIKS5_St10shared_ptrI16default_functionEESt10_Select1stISB_ESt4lessIS5_ESaISB_EE8_M_eraseEPSt13_Rb_tree_nodeISB_E
FNDA:22,_ZNSt8_Rb_treeINSt7__cxx1112basic_stringIcSt11char_traitsIcESaIcEEESt4pairIKS5_St10shared_ptrI16default_functionEESt10_Select1stISB_ESt4lessIS5_ESaISB_EE8_M_eraseEPSt13_Rb_tree_nodeISB_E
FN:1912,_ZNSt8_Rb_treeINSt7__cxx1112basic_stringIcSt11char_traitsIcESaIcEEESt4pairIKS5_S5_ESt10_Select1stIS8_ESt4lessIS5_ESaIS8_EE8_M_eraseEPSt13_Rb_tree_nodeIS8_E
FNDA:100033,_ZNSt8_Rb_treeINSt7__cxx1112basic_stringIcSt11char_traitsIcESaIcEEESt4pairIKS5_S5_ESt10_Select1stIS8_ESt4lessIS5_ESaIS8_EE8_M_eraseEPSt13_Rb_tree_nodeIS8_E
FN:1912,_ZNSt8_Rb_treeINSt7__cxx1112basic_stringIcSt11char_traitsIcESaIcEEESt4pairIKS5_xESt10_Select1stIS8_ESt4lessIS5_ESaIS8_EE8_M_eraseEPSt13_Rb_tree_nodeIS8_E
FNDA:100033,_ZNSt8_Rb_treeINSt7__cxx1112basic_stringIcSt11char_traitsIcESaIcEEESt4pairIKS5_xESt10_Select1stIS8_ESt4lessIS5_ESaIS8_EE8_M_eraseEPSt13_Rb_tree_nodeIS8_E
FN:1929,_ZNSt8_Rb_treeINSt7__cxx1112basic_stringIcSt11char_traitsIcESaIcEEESt4pairIKS5_xESt10_Select1stIS8_ESt4lessIS5_ESaIS8_EE14_M_lower_boundEPSt13_Rb_tree_nodeIS8_EPSt18_Rb_tree_node_baseRS7_
FNDA:12,_ZNSt8_Rb_treeINSt7__cxx1112basic_stringIcSt11char_traitsIcESaIcEEESt4pairIKS5_xESt10_Select1stIS8_ESt4lessIS5_ESaIS8_EE14_M_lower_boundEPSt13_Rb_tree_nodeIS8_EPSt18_Rb_tree_node_baseRS7_
FN:1929,_ZNSt8_Rb_treeINSt7__cxx1112basic_stringIcSt11char_traitsIcESaIcEEESt4pairIKS5_St10shared_ptrI16default_functionEESt10_Select1stISB_ESt4lessIS5_ESaISB_EE14_M_lower_boundEPSt13_Rb_tree_nodeISB_EPSt18_Rb_tree_node_baseRS7_
FNDA:200203,_ZNSt8_Rb_treeINSt7__cxx1112basic_stringIcSt11char_traitsIcESaIcEEESt4pairIKS5_St10shared_ptrI16default_functionEESt10_Select1stISB_ESt4lessIS5_ESaISB_EE14_M_lower_boundEPSt13_Rb_tree_nodeISB_EPSt18_Rb_tree_node_baseRS7_
FN:1929,_ZNSt8_Rb_treeINSt7__cxx1112basic_stringIcSt11char_traitsIcESaIcEEESt4pairIKS5_S5_ESt10_Select1stIS8_ESt4lessIS5_ESaIS8_EE14_M_lower_boundEPSt13_Rb_tree_nodeIS8_EPSt18_Rb_tree_node_baseRS7_
FNDA:9,_ZNSt8_Rb_treeINSt7__cxx1112basic_stringIcSt11char_traitsIcESaIcEEESt4pairIKS5_S5_ESt10_Select1stIS8_ESt4lessIS5_ESaIS8_EE14_M_lower_boundEPSt13_Rb_tree_nodeIS8_EPSt18_Rb_tree_node_baseRS7_
FN:2090,_ZNSt8_Rb_treeINSt7__cxx1112basic_stringIcSt11char_traitsIcESaIcEEESt4pairIKS5_xESt10_Select1stIS8_ESt4lessIS5_ESaIS8_EE24_M_get_insert_unique_posERS7_
FNDA:1,_ZNSt8_Rb_treeINSt7__cxx1112basic_stringIcSt11char_traitsIcESaIcEEESt4pairIKS5_xESt10_Select1stIS8_ESt4lessIS5_ESaIS8_EE24_M_get_insert_unique_posERS7_
FN:2090,_ZNSt8_Rb_treeINSt7__cxx1112basic_stringIcSt11char_traitsIcESaIcEEESt4pairIKS5_S5_ESt10_Select1stIS8_ESt4lessIS5_ESaIS8_EE24_M_get_insert_unique_posERS7_
FNDA:1,_ZNSt8_Rb_treeINSt7__cxx1112basic_stringIcSt11char_traitsIcESaIcEEESt4pairIKS5_S5_ESt10_Select1stIS8_ESt4lessIS5_ESaIS8_EE24_M_get_insert_unique_posERS7_
FN:2090,_ZNSt8_Rb_treeINSt7__cxx1112basic_stringIcSt11char_traitsIcESaIcEEESt4pairIKS5_St10shared_ptrI16default_functionEESt10_Select1stISB_ESt4lessIS5_ESaISB_EE24_M_get_insert_unique_posERS7_
FNDA:21,_ZNSt8_Rb_treeINSt7__cxx1112basic_stringIcSt11char_traitsIcESaIcEEESt4pairIKS5_St10shared_ptrI16default_functionEESt10_Select1stISB_ESt4lessIS5_ESaISB_EE24_M_get_insert_unique_posERS7_
FN:2144,_ZNSt8_Rb_treeINSt7__cxx1112basic_stringIcSt11char_traitsIcESaIcEEESt4pairIKS5_St10shared_ptrI16default_functionEESt10_Select1stISB_ESt4lessIS5_ESaISB_EE16_M_insert_uniqueISB_EES6_ISt17_Rb_tree_iteratorISB_EbEOT_
FNDA:21,_ZNSt8_Rb_treeINSt7__cxx1112basic_stringIcSt11char_traitsIcESaIcEEESt4pairIKS5_St10shared_ptrI16default_functionEESt10_Select1stISB_ESt4lessIS5_ESaISB_EE16_M_insert_uniqueISB_EES6_ISt17_Rb_tree_iteratorISB_EbEOT_
FN:2144,_ZNSt8_Rb_treeINSt7__cxx1112basic_stringIcSt11char_traitsIcESaIcEEESt4pairIKS5_S5_ESt10_Select1stIS8_ESt4lessIS5_ESaIS8_EE16_M_insert_uniqueIS8_EES6_ISt17_Rb_tree_iteratorIS8_EbEOT_
FNDA:1,_ZNSt8_Rb_treeINSt7__cxx1112basic_stringIcSt11char_traitsIcESaIcEEESt4pairIKS5_S5_ESt10_Select1stIS8_ESt4lessIS5_ESaIS8_EE16_M_insert_uniqueIS8_EES6_ISt17_Rb_tree_iteratorIS8_EbEOT_
FN:2144,_ZNSt8_Rb_treeINSt7__cxx1112basic_stringIcSt11char_traitsIcESaIcEEESt4pairIKS5_xESt10_Select1stIS8_ESt4lessIS5_ESaIS8_EE16_M_insert_uniqueIS8_EES6_ISt17_Rb_tree_iteratorIS8_EbEOT_
FNDA:1,_ZNSt8_Rb_treeINSt7__cxx1112basic_stringIcSt11char_traitsIcESaIcEEESt4pairIKS5_xESt10_Select1stIS8_ESt4lessIS5_ESaIS8_EE16_M_insert_uniqueIS8_EES6_ISt17_Rb_tree_iteratorIS8_EbEOT_
FN:2559,_ZNSt8_Rb_treeINSt7__cxx1112basic_stringIcSt11char_traitsIcESaIcEEESt4pairIKS5_St10shared_ptrI16default_functionEESt10_Select1stISB_ESt4lessIS5_ESaISB_EE4findERS7_
FNDA:100105,_ZNSt8_Rb_treeINSt7__cxx1112basic_stringIcSt11char_traitsIcESaIcEEESt4pairIKS5_St10shared_ptrI16default_functionEESt10_Select1stISB_ESt4lessIS5_ESaISB_EE4findERS7_
FN:2559,_ZNSt8_Rb_treeINSt7__cxx1112basic_stringIcSt11char_traitsIcESaIcEEESt4pairIKS5_S5_ESt10_Select1stIS8_ESt4lessIS5_ESaIS8_EE4findERS7_
FNDA:7,_ZNSt8_Rb_treeINSt7__cxx1112basic_stringIcSt11char_traitsIcESaIcEEESt4pairIKS5_S5_ESt10_Select1stIS8_ESt4lessIS5_ESaIS8_EE4findERS7_
FN:2559,_ZNSt8_Rb_treeINSt7__cxx1112basic_stringIcSt11char_traitsIcESaIcEEESt4pairIKS5_xESt10_Select1stIS8_ESt4lessIS5_ESaIS8_EE4findERS7_
FNDA:5,_ZNSt8_Rb_treeINSt7__cxx1112basic_stringIcSt11char_traitsIcESaIcEEESt4pairIKS5_xESt10_Select1stIS8_ESt4lessIS5_ESaIS8_EE4findERS7_
DA:146,200065
DA:150,200065
DA:173,200065
DA:174,200065
DA:175,200065
DA:176,200065
DA:177,200065
DA:206,200065
DA:208,200065
DA:209,200065
DA:210,200065
DA:211,200065
DA:212,200065
DA:234,16
DA:235,16
DA:234,6
DA:235,6
DA:234,200238
DA:235,200238
DA:238,13
DA:239,13
DA:238,6
DA:239,6
DA:238,901120
DA:239,901120
DA:273,34
DA:274,34
DA:273,33
DA:274,33
DA:273,500572
DA:274,500572
DA:277,14
DA:278,14
DA:277,4
DA:278,4
DA:277,200196
DA:278,200196
DA:300,0
DA:302,0
DA:303,0
DA:300,0
DA:302,0
DA:303,0
DA:300,10
DA:302,10
DA:303,10
DA:315,13
DA:316,13
DA:315,10
DA:316,10
DA:315,200215
DA:316,200215
DA:319,5
DA:320,5
DA:319,7
DA:320,7
DA:319,100105
DA:320,100105
DA:538,1
DA:539,1
DA:538,1
DA:539,1
DA:538,21
DA:539,21
DA:546,1
DA:548,1
DA:546,1
DA:548,1
DA:546,21
DA:548,21
DA:566,4
DA:567,4
DA:566,4
DA:567,4
DA:566,84
DA:567,84
DA:579,1
DA:580,1
DA:579,1
DA:580,1
DA:579,21
DA:580,21
DA:583,1
DA:584,1
DA:583,1
DA:584,1
DA:583,21
DA:584,21
DA:609,1
DA:613,1
DA:614,1
DA:618,0
DA:620,0
DA:621,0
DA:622,0
DA:624,1
DA:609,1
DA:613,1
DA:614,1
DA:618,0
DA:620,0
DA:621,0
DA:622,0
DA:624,1
DA:609,21
DA:613,21
DA:614,21
DA:618,0
DA:620,0
DA:621,0
DA:622,0
DA:624,21
DA:628,1
DA:630,1
DA:631,1
DA:632,1
DA:628,1
DA:630,1
DA:631,1
DA:632,1
DA:628,21
DA:630,21
DA:631,21
DA:632,21
DA:637,1
DA:642,1
DA:643,1
DA:645,1
DA:637,1
DA:642,1
DA:643,1
DA:645,1
DA:637,21
DA:642,21
DA:643,21
DA:645,21
DA:648,1
DA:650,1
DA:651,1
DA:652,1
DA:648,1
DA:650,1
DA:651,1
DA:652,1
DA:648,21
DA:650,21
DA:651,21
DA:652,21
DA:680,100032
DA:684,100032
DA:685,100032
DA:680,100032
DA:684,100032
DA:685,100032
DA:680,1
DA:684,1
DA:685,1
DA:749,100045
DA:750,100045
DA:749,100042
DA:750,100042
DA:749,200225
DA:750,200225
DA:760,14
DA:761,14
DA:760,11
DA:761,11
DA:760,200245
DA:761,200245
DA:772,13
DA:790,13
DA:772,6
DA:790,6
DA:772,901120
DA:790,901120
DA:794,11
DA:795,11
DA:794,5
DA:795,5
DA:794,400511
DA:795,400511
DA:802,1
DA:803,1
DA:802,1
DA:803,1
DA:802,400507
DA:803,400507
DA:814,3
DA:815,3
DA:814,2
DA:815,2
DA:814,100144
DA:815,100144
DA:944,100032
DA:944,100032
DA:944,1
DA:999,100032
DA:1000,100032
DA:999,100032
DA:1000,100032
DA:999,1
DA:1000,1
DA:1007,7
DA:1008,7
DA:1007,2
DA:1008,2
DA:1007,100098
DA:1008,100098
DA:1011,1
DA:1012,1
DA:1011,1
DA:1012,1
DA:1011,12
DA:1012,12
DA:1019,19
DA:1020,19
DA:1019,21
DA:1020,21
DA:1019,300315
DA:1020,300315
DA:1286,7
DA:1287,7
DA:1286,2
DA:1287,2
DA:1286,100098
DA:1287,100098
DA:1802,1
DA:1811,1
DA:1812,2
DA:1815,1
DA:1817,1
DA:1818,1
DA:1819,1
DA:1820,1
DA:1802,1
DA:1811,1
DA:1812,2
DA:1815,1
DA:1817,1
DA:1818,1
DA:1819,1
DA:1820,1
DA:1802,21
DA:1811,21
DA:1812,42
DA:1815,21
DA:1817,21
DA:1818,21
DA:1819,21
DA:1820,21
DA:1912,100034
DA:1916,100034
DA:1918,1
DA:1919,1
DA:1920,1
DA:1921,1
DA:1923,100033
DA:1912,100034
DA:1916,100034
DA:1918,1
DA:1919,1
DA:1920,1
DA:1921,1
DA:1923,100033
DA:1912,43
DA:1916,43
DA:1918,21
DA:1919,21
DA:1920,21
DA:1921,21
DA:1923,22
DA:1929,22
DA:1933,22
DA:1934,10
DA:1935,10
DA:1937,0
DA:1938,12
DA:1929,13
DA:1933,13
DA:1934,4
DA:1935,4
DA:1937,0
DA:1938,9
DA:1929,1001110
DA:1933,1001110
DA:1934,800906
DA:1935,400460
DA:1937,400446
DA:1938,200203
DA:2090,1
DA:2094,1
DA:2095,1
DA:2096,1
DA:2097,1
DA:2099,0
DA:2100,0
DA:2101,0
DA:2103,1
DA:2104,1
DA:2106,1
DA:2107,1
DA:2109,0
DA:2111,0
DA:2112,0
DA:2113,0
DA:2090,1
DA:2094,1
DA:2095,1
DA:2096,1
DA:2097,1
DA:2099,0
DA:2100,0
DA:2101,0
DA:2103,1
DA:2104,1
DA:2106,1
DA:2107,1
DA:2109,0
DA:2111,0
DA:2112,0
DA:2113,0
DA:2090,21
DA:2094,21
DA:2095,21
DA:2096,21
DA:2097,91
DA:2099,70
DA:2100,70
DA:2101,70
DA:2103,21
DA:2104,21
DA:2106,12
DA:2107,2
DA:2109,10
DA:2111,19
DA:2112,19
DA:2113,0
DA:2144,1
DA:2152,1
DA:2153,1
DA:2155,1
DA:2157,1
DA:2158,1
DA:2160,2
DA:2163,0
DA:2144,1
DA:2152,1
DA:2153,1
DA:2155,1
DA:2157,1
DA:2158,1
DA:2160,2
DA:2163,0
DA:2144,21
DA:2152,21
DA:2153,21
DA:2155,21
DA:2157,21
DA:2158,21
DA:2160,42
DA:2163,0
DA:2559,5
DA:2562,5
DA:2563,10
DA:2564,3
DA:2565,13
DA:2559,7
DA:2562,7
DA:2563,14
DA:2564,2
DA:2565,16
DA:2559,100105
DA:2562,100105
DA:2563,200210
DA:2564,100105
DA:2565,300315
end_of_record
SF:/home/macsia/Project_cpp/21201_polukhin/Interpreter/default_functions.hpp
FN:10,_ZN8multiply4workERSt5stackIxSt5dequeIxSaIxEEERNSt7__cxx1118basic_stringstreamIcSt11char_traitsIcESaIcEEESC_
FNDA:1,_ZN8multiply4workERSt5stackIxSt5dequeIxSaIxEEERNSt7__cxx1118basic_stringstreamIcSt11char_traitsIcESaIcEEESC_
FN:18,_ZN8multiply8get_nameB5cxx11Ev
FNDA:1,_ZN8multiply8get_nameB5cxx11Ev
FN:26,_ZN6divide4workERSt5stackIxSt5dequeIxSaIxEEERNSt7__cxx1118basic_stringstreamIcSt11char_traitsIcESaIcEEESC_
FNDA:2,_ZN6divide4workERSt5stackIxSt5dequeIxSaIxEEERNSt7__cxx1118basic_stringstreamIcSt11char_traitsIcESaIcEEESC_
FN:36,_ZN6divide8get_nameB5cxx11Ev
FNDA:1,_ZN6divide8get_nameB5cxx11Ev
FN:44,_ZN4plus4workERSt5stackIxSt5dequeIxSaIxEEERNSt7__cxx1118basic_stringstreamIcSt11char_traitsIcESaIcEEESC_
FNDA:1,_ZN4plus4workERSt5stackIxSt5dequeIxSaIxEEERNSt7__cxx1118basic_stringstreamIcSt11char_traitsIcESaIcEEESC_
FN:50,_ZN4plus8get_nameB5cxx11Ev
FNDA:1,_ZN4plus8get_nameB5cxx11Ev
FN:58,_ZN5minus4workERSt5stackIxSt5dequeIxSaIxEEERNSt7__cxx1118basic_stringstreamIcSt11char_traitsIcESaIcEEESC_
FNDA:1,_ZN5minus4workERSt5stackIxSt5dequeIxSaIxEEERNSt7__cxx1118basic_stringstreamIcSt11char_traitsIcESaIcEEESC_
FN:66,_ZN5minus8get_nameB5cxx11Ev
FNDA:1,_ZN5minus8get_nameB5cxx11Ev
FN:74,_ZN3mod4workERSt5stackIxSt5dequeIxSaIxEEERNSt7__cxx1118basic_stringstreamIcSt11char_traitsIcESaIcEEESC_
FNDA:1,_ZN3mod4workERSt5stackIxSt5dequeIxSaIxEEERNSt7__cxx1118basic_stringstreamIcSt11char_traitsIcESaIcEEESC_
FN:82,_ZN3mod8get_nameB5cxx11Ev
FNDA:1,_ZN3mod8get_nameB5cxx11Ev
FN:90,_ZN4copy4workERSt5stackIxSt5dequeIxSaIxEEERNSt7__cxx1118basic_stringstreamIcSt11char_traitsIcESaIcEEESC_
FNDA:1,_ZN4copy4workERSt5stackIxSt5dequeIxSaIxEEERNSt7__cxx1118basic_stringstreamIcSt11char_traitsIcESaIcEEESC_
FN:95,_ZN4copy8get_nameB5cxx11Ev
FNDA:1,_ZN4copy8get_nameB5cxx11Ev
FN:103,_ZN4drop4workERSt5stackIxSt5dequeIxSaIxEEERNSt7__cxx1118basic_stringstreamIcSt11char_traitsIcESaIcEEESC_
FNDA:1,_ZN4drop4workERSt5stackIxSt5dequeIxSaIxEEERNSt7__cxx1118basic_stringstreamIcSt11char_traitsIcESaIcEEESC_
FN:107,_ZN4drop8get_nameB5cxx11Ev
FNDA:1,_ZN4drop8get_nameB5cxx11Ev
FN:115,_ZN5print4workERSt5stackIxSt5dequeIxSaIxEEERNSt7__cxx1118basic_stringstreamIcSt11char_traitsIcESaIcEEESC_
FNDA:100040,_ZN5print4workERSt5stackIxSt5dequeIxSaIxEEERNSt7__cxx1118basic_stringstreamIcSt11char_traitsIcESaIcEEESC_
FN:123,_ZN5print8get_nameB5cxx11Ev
FNDA:1,_ZN5print8get_nameB5cxx11Ev
FN:131,_ZN4swap4workERSt5stackIxSt5dequeIxSaIxEEERNSt7__cxx1118basic_stringstreamIcSt11char_traitsIcESaIcEEESC_
FNDA:1,_ZN4swap4workERSt5stackIxSt5dequeIxSaIxEEERNSt7__cxx1118basic_stringstreamIcSt11char_traitsIcESaIcEEESC_
FN:140,_ZN4swap8get_nameB5cxx11Ev
FNDA:1,_ZN4swap8get_nameB5cxx11Ev
FN:149,_ZN3rot4workERSt5stackIxSt5dequeIxSaIxEEERNSt7__cxx1118basic_stringstreamIcSt11char_traitsIcESaIcEEESC_
FNDA:1,_ZN3rot4workERSt5stackIxSt5dequeIxSaIxEEERNSt7__cxx1118basic_stringstreamIcSt11char_traitsIcESaIcEEESC_
FN:161,_ZN3rot8get_nameB5cxx11Ev
FNDA:1,_ZN3rot8get_nameB5cxx11Ev
FN:169,_ZN4over4workERSt5stackIxSt5dequeIxSaIxEEERNSt7__cxx1118basic_stringstreamIcSt11char_traitsIcESaIcEEESC_
FNDA:1,_ZN4over4workERSt5stackIxSt5dequeIxSaIxEEERNSt7__cxx1118basic_stringstreamIcSt11char_traitsIcESaIcEEESC_
FN:178,_ZN4over8get_nameB5cxx11Ev
FNDA:1,_ZN4over8get_nameB5cxx11Ev
FN:186,_ZN4emit4workERSt5stackIxSt5dequeIxSaIxEEERNSt7__cxx1118basic_stringstreamIcSt11char_traitsIcESaIcEEESC_
FNDA:1,_ZN4emit4workERSt5stackIxSt5dequeIxSaIxEEERNSt7__cxx1118basic_stringstreamIcSt11char_traitsIcESaIcEEESC_
FN:191,_ZN4emit8get_nameB5cxx11Ev
FNDA:1,_ZN4emit8get_nameB5cxx11Ev
FN:199,_ZN2cr4workERSt5stackIxSt5dequeIxSaIxEEERNSt7__cxx1118basic_stringstreamIcSt11char_traitsIcESaIcEEESC_
FNDA:1,_ZN2cr4workERSt5stackIxSt5dequeIxSaIxEEERNSt7__cxx1118basic_stringstreamIcSt11char_traitsIcESaIcEEESC_
FN:203,_ZN2cr8get_nameB5cxx11Ev
FNDA:1,_ZN2cr8get_nameB5cxx11Ev
FN:211,_ZN4less4workERSt5stackIxSt5dequeIxSaIxEEERNSt7__cxx1118basic_stringstreamIcSt11char_traitsIcESaIcEEESC_
FNDA:2,_ZN4less4workERSt5stackIxSt5dequeIxSaIxEEERNSt7__cxx1118basic_stringstreamIcSt11char_traitsIcESaIcEEESC_
FN:219,_ZN4less8get_nameB5cxx11Ev
FNDA:1,_ZN4less8get_nameB5cxx11Ev
FN:227,_ZN7greater4workERSt5stackIxSt5dequeIxSaIxEEERNSt7__cxx1118basic_stringstreamIcSt11char_traitsIcESaIcEEESC_
FNDA:2,_ZN7greater4workERSt5stackIxSt5dequeIxSaIxEEERNSt7__cxx1118basic_stringstreamIcSt11char_traitsIcESaIcEEESC_
FN:235,_ZN7greater8get_nameB5cxx11Ev
FNDA:1,_ZN7greater8get_nameB5cxx11Ev
FN:243,_ZN5equal4workERSt5stackIxSt5dequeIxSaIxEEERNSt7__cxx1118basic_stringstreamIcSt11char_traitsIcESaIcEEESC_
FNDA:3,_ZN5equal4workERSt5stackIxSt5dequeIxSaIxEEERNSt7__cxx1118basic_stringstreamIcSt11char_traitsIcESaIcEEESC_
FN:251,_ZN5equal8get_nameB5cxx11Ev
FNDA:1,_ZN5equal8get_nameB5cxx11Ev
FN:259,_ZN9reference4workERSt5stackIxSt5dequeIxSaIxEEERNSt7__cxx1118basic_stringstreamIcSt11char_traitsIcESaIcEEESC_
FNDA:2,_ZN9reference4workERSt5stackIxSt5dequeIxSaIxEEERNSt7__cxx1118basic_stringstreamIcSt11char_traitsIcESaIcEEESC_
FN:263,_ZN9reference8get_nameB5cxx11Ev
FNDA:1,_ZN9reference8get_nameB5cxx11Ev
FN:271,_ZN11dereference4workERSt5stackIxSt5dequeIxSaIxEEERNSt7__cxx1118basic_stringstreamIcSt11char_traitsIcESaIcEEESC_
FNDA:1,_ZN11dereference4workERSt5stackIxSt5dequeIxSaIxEEERNSt7__cxx1118basic_stringstreamIcSt11char_traitsIcESaIcEEESC_
FN:279,_ZN11dereference8get_nameB5cxx11Ev
FNDA:1,_ZN11dereference8get_nameB5cxx11Ev
FN:287,_ZN12print_string4workERSt5stackIxSt5dequeIxSaIxEEERNSt7__cxx1118basic_stringstreamIcSt11char_traitsIcESaIcEEESC_
FNDA:21,_ZN12print_string4workERSt5stackIxSt5dequeIxSaIxEEERNSt7__cxx1118basic_stringstreamIcSt11char_traitsIcESaIcEEESC_
FN:304,_ZN12print_string8get_nameB5cxx11Ev
FNDA:1,_ZN12print_string8get_nameB5cxx11Ev
FN:312,_ZN20conditional_operator4workERSt5stackIxSt5dequeIxSaIxEEERNSt7__cxx1118basic_stringstreamIcSt11char_traitsIcESaIcEEESC_
FNDA:8,_ZN20conditional_operator4workERSt5stackIxSt5dequeIxSaIxEEERNSt7__cxx1118basic_stringstreamIcSt11char_traitsIcESaIcEEESC_
FN:364,_ZN20conditional_operator8get_nameB5cxx11Ev
FNDA:1,_ZN20conditional_operator8get_nameB5cxx11Ev
FN:372,_ZN4loop4workERSt5stackIxSt5dequeIxSaIxEEERNSt7__cxx1118basic_stringstreamIcSt11char_traitsIcESaIcEEESC_
FNDA:6,_ZN4loop4workERSt5stackIxSt5dequeIxSaIxEEERNSt7__cxx1118basic_stringstreamIcSt11char_traitsIcESaIcEEESC_
FN:408,_ZN4loop8get_nameB5cxx11Ev
FNDA:1,_ZN4loop8get_nameB5cxx11Ev
DA:10,1
DA:12,1
DA:13,1
DA:14,1
DA:15,1
DA:16,1
DA:17,1
DA:18,1
DA:20,1
DA:26,2
DA:28,2
DA:29,2
DA:30,2
DA:31,2
DA:32,2
DA:33,1
DA:34,1
DA:35,1
DA:36,1
DA:38,1
DA:44,1
DA:46,1
DA:47,1
DA:48,1
DA:49,1
DA:50,1
DA:52,1
DA:58,1
DA:60,1
DA:61,1
DA:62,1
DA:63,1
DA:64,1
DA:65,1
DA:66,1
DA:68,1
DA:74,1
DA:76,1
DA:77,1
DA:78,1
DA:79,1
DA:80,1
DA:81,1
DA:82,1
DA:84,1
DA:90,1
DA:92,1
DA:93,1
DA:94,1
DA:95,1
DA:97,1
DA:103,1
DA:105,1
DA:106,1
DA:107,1
DA:109,1
DA:115,100040
DA:117,100040
DA:118,1
DA:119,100039
DA:120,100039
DA:121,100039
DA:122,100039
DA:123,1
DA:125,1
DA:131,1
DA:133,1
DA:134,1
DA:135,1
DA:136,1
DA:137,1
DA:138,1
DA:139,1
DA:140,1
DA:142,1
DA:149,1
DA:151,1
DA:152,1
DA:153,1
DA:154,1
DA:155,1
DA:156,1
DA:157,1
DA:158,1
DA:159,1
DA:160,1
DA:161,1
DA:163,1
DA:169,1
DA:171,1
DA:172,1
DA:173,1
DA:174,1
DA:175,1
DA:176,1
DA:177,1
DA:178,1
DA:180,1
DA:186,1
DA:188,1
DA:189,1
DA:190,1
DA:191,1
DA:193,1
DA:199,1
DA:201,1
DA:202,1
DA:203,1
DA:205,1
DA:211,2
DA:213,2
DA:214,2
DA:215,2
DA:216,2
DA:217,2
DA:218,2
DA:219,1
DA:221,1
DA:227,2
DA:229,2
DA:230,2
DA:231,2
DA:232,2
DA:233,2
DA:234,2
DA:235,1
DA:237,1
DA:243,3
DA:245,3
DA:246,3
DA:247,3
DA:248,3
DA:249,3
DA:250,3
DA:251,1
DA:253,1
DA:259,2
DA:261,2
DA:262,2
DA:263,1
DA:265,1
DA:271,1
DA:273,1
DA:274,1
DA:275,1
DA:276,1
DA:277,1
DA:278,1
DA:279,1
DA:281,1
DA:287,21
DA:289,21
DA:290,21
DA:291,0
DA:292,43
DA:295,141
DA:296,141
DA:297,1
DA:298,140
DA:299,20
DA:300,120
DA:302,20
DA:303,20
DA:304,1
DA:306,1
DA:312,8
DA:314,8
DA:315,8
DA:316,8
DA:323,8
DA:324,16
DA:325,38
DA:327,37
DA:329,6
DA:331,31
DA:333,7
DA:334,7
DA:338,24
DA:340,14
DA:341,14
DA:342,6
DA:343,14
DA:344,10
DA:345,10
DA:346,6
DA:347,10
DA:348,0
DA:349,0
DA:354,8
DA:355,1
DA:356,7
DA:357,7
DA:358,7
DA:360,1
DA:361,1
DA:363,6
DA:364,1
DA:366,1
DA:372,6
DA:374,6
DA:375,6
DA:376,6
DA:377,6
DA:378,6
DA:379,12
DA:380,12
DA:381,18
DA:383,17
DA:384,5
DA:385,12
DA:387,6
DA:388,1
DA:389,5
DA:390,23
DA:392,54
DA:393,54
DA:395,36
DA:396,10
DA:398,26
DA:401,5
DA:402,5
DA:404,1
DA:405,1
DA:407,4
DA:408,1
DA:410,1
end_of_record
SF:/usr/include/c++/9/bits/stl_deque.h
FN:93,_ZSt16__deque_buf_sizem
FNDA:1200380,_ZSt16__deque_buf_sizem
FN:130,_ZNSt15_Deque_iteratorIxRxPxE14_S_buffer_sizeEv
FNDA:400128,_ZNSt15_Deque_iteratorIxRxPxE14_S_buffer_sizeEv
FN:150,_ZNSt15_Deque_iteratorIxRxPxEC2Ev
FNDA:400128,_ZNSt15_Deque_iteratorIxRxPxEC2Ev
FN:167,_ZNSt15_Deque_iteratorIxRxPxEC2ERKS2_
FNDA:500230,_ZNSt15_Deque_iteratorIxRxPxEC2ERKS2_
FN:179,_ZNKSt15_Deque_iteratorIxRxPxEdeEv
FNDA:100102,_ZNKSt15_Deque_iteratorIxRxPxEdeEv
FN:207,_ZNSt15_Deque_iteratorIxRxPxEmmEv
FNDA:100102,_ZNSt15_Deque_iteratorIxRxPxEmmEv
FN:273,_ZNSt15_Deque_iteratorIxRxPxE11_M_set_nodeEPS1_
FNDA:400128,_ZNSt15_Deque_iteratorIxRxPxE11_M_set_nodeEPS1_
FN:286,_ZSteqIxRxPxEbRKSt15_Deque_iteratorIT_T0_T1_ES8_
FNDA:100040,_ZSteqIxRxPxEbRKSt15_Deque_iteratorIT_T0_T1_ES8_
FN:370,_ZStmiIxRxPxENSt15_Deque_iteratorIT_T0_T1_E15difference_typeERKS6_S9_
FNDA:0,_ZStmiIxRxPxENSt15_Deque_iteratorIT_T0_T1_E15difference_typeERKS6_S9_
FN:508,_ZNSt11_Deque_baseIxSaIxEEC2Ev
FNDA:200064,_ZNSt11_Deque_baseIxSaIxEEC2Ev
FN:575,_ZNSt11_Deque_baseIxSaIxEE11_Deque_implC2Ev
FNDA:200064,_ZNSt11_Deque_baseIxSaIxEE11_Deque_implC2Ev
FN:605,_ZNSt11_Deque_baseIxSaIxEE19_M_get_Tp_allocatorEv
FNDA:200064,_ZNSt11_Deque_baseIxSaIxEE19_M_get_Tp_allocatorEv
FN:609,_ZNKSt11_Deque_baseIxSaIxEE19_M_get_Tp_allocatorEv
FNDA:400128,_ZNKSt11_Deque_baseIxSaIxEE19_M_get_Tp_allocatorEv
FN:613,_ZNKSt11_Deque_baseIxSaIxEE20_M_get_map_allocatorEv
FNDA:400128,_ZNKSt11_Deque_baseIxSaIxEE20_M_get_map_allocatorEv
FN:617,_ZNSt11_Deque_baseIxSaIxEE16_M_allocate_nodeEv
FNDA:200064,_ZNSt11_Deque_baseIxSaIxEE16_M_allocate_nodeEv
FN:624,_ZNSt11_Deque_baseIxSaIxEE18_M_deallocate_nodeEPx
FNDA:200064,_ZNSt11_Deque_baseIxSaIxEE18_M_deallocate_nodeEPx
FN:631,_ZNSt11_Deque_baseIxSaIxEE15_M_allocate_mapEm
FNDA:200064,_ZNSt11_Deque_baseIxSaIxEE15_M_allocate_mapEm
FN:638,_ZNSt11_Deque_baseIxSaIxEE17_M_deallocate_mapEPPxm
FNDA:200064,_ZNSt11_Deque_baseIxSaIxEE17_M_deallocate_mapEPPxm
FN:678,_ZNSt11_Deque_baseIxSaIxEED2Ev
FNDA:200064,_ZNSt11_Deque_baseIxSaIxEED2Ev
FN:699,_ZNSt11_Deque_baseIxSaIxEE17_M_initialize_mapEm
FNDA:200064,_ZNSt11_Deque_baseIxSaIxEE17_M_initialize_mapEm
FN:738,_ZNSt11_Deque_baseIxSaIxEE15_M_create_nodesEPPxS3_
FNDA:200064,_ZNSt11_Deque_baseIxSaIxEE15_M_create_nodesEPPxS3_
FN:756,_ZNSt11_Deque_baseIxSaIxEE16_M_destroy_nodesEPPxS3_
FNDA:200064,_ZNSt11_Deque_baseIxSaIxEE16_M_destroy_nodesEPPxS3_
FN:915,_ZNSt5dequeIxSaIxEEC2Ev
FNDA:200064,_ZNSt5dequeIxSaIxEEC2Ev
FN:1071,_ZNSt5dequeIxSaIxEED2Ev
FNDA:200064,_ZNSt5dequeIxSaIxEED2Ev
FN:1193,_ZNSt5dequeIxSaIxEE5beginEv
FNDA:200064,_ZNSt5dequeIxSaIxEE5beginEv
FN:1210,_ZNSt5dequeIxSaIxEE3endEv
FNDA:300166,_ZNSt5dequeIxSaIxEE3endEv
FN:1298,_ZNKSt5dequeIxSaIxEE4sizeEv
FNDA:0,_ZNKSt5dequeIxSaIxEE4sizeEv
FN:1303,_ZNKSt5dequeIxSaIxEE8max_sizeEv
FNDA:0,_ZNKSt5dequeIxSaIxEE8max_sizeEv
FN:1384,_ZNKSt5dequeIxSaIxEE5emptyEv
FNDA:100040,_ZNKSt5dequeIxSaIxEE5emptyEv
FN:1500,_ZNSt5dequeIxSaIxEE4backEv
FNDA:100102,_ZNSt5dequeIxSaIxEE4backEv
FN:1584,_ZNSt5dequeIxSaIxEE9push_backEOx
FNDA:100122,_ZNSt5dequeIxSaIxEE9push_backEOx
FN:1628,_ZNSt5dequeIxSaIxEE8pop_backEv
FNDA:100094,_ZNSt5dequeIxSaIxEE8pop_backEv
FN:1896,_ZNSt5dequeIxSaIxEE11_S_max_sizeERKS0_
FNDA:0,_ZNSt5dequeIxSaIxEE11_S_max_sizeERKS0_
FN:2113,_ZNSt5dequeIxSaIxEE15_M_destroy_dataESt15_Deque_iteratorIxRxPxES5_RKS0_
FNDA:200064,_ZNSt5dequeIxSaIxEE15_M_destroy_dataESt15_Deque_iteratorIxRxPxES5_RKS0_
FN:2194,_ZNSt5dequeIxSaIxEE22_M_reserve_map_at_backEm
FNDA:0,_ZNSt5dequeIxSaIxEE22_M_reserve_map_at_backEm
DA:93,1200380
DA:95,1200380
DA:130,400128
DA:131,400128
DA:150,400128
DA:151,400128
DA:167,500230
DA:168,500230
DA:169,500230
DA:179,100102
DA:180,100102
DA:207,100102
DA:209,100102
DA:211,0
DA:212,0
DA:214,100102
DA:215,100102
DA:273,400128
DA:275,400128
DA:276,400128
DA:277,400128
DA:278,400128
DA:286,100040
DA:288,100040
DA:370,0
DA:374,0
DA:375,0
DA:376,0
DA:508,200064
DA:509,200064
DA:510,200064
DA:575,200064
DA:577,200064
DA:578,200064
DA:605,200064
DA:606,200064
DA:609,400128
DA:610,400128
DA:613,400128
DA:614,400128
DA:617,200064
DA:620,200064
DA:624,200064
DA:627,200064
DA:628,200064
DA:631,200064
DA:633,400128
DA:634,400128
DA:638,200064
DA:640,400128
DA:641,200064
DA:642,200064
DA:678,200064
DA:681,200064
DA:683,200064
DA:684,200064
DA:685,200064
DA:687,200064
DA:699,200064
DA:702,200064
DA:705,400128
DA:706,200064
DA:707,200064
DA:714,200064
DA:715,200064
DA:716,200064
DA:719,200064
DA:720,0
DA:722,0
DA:723,0
DA:724,0
DA:725,0
DA:728,200064
DA:729,200064
DA:730,200064
DA:731,400128
DA:732,200064
DA:733,200064
DA:734,200064
DA:738,200064
DA:744,400128
DA:745,200064
DA:747,0
DA:749,0
DA:750,0
DA:752,200064
DA:756,200064
DA:760,400128
DA:761,200064
DA:762,200064
DA:915,200064
DA:1071,200064
DA:1072,200064
DA:1193,200064
DA:1194,200064
DA:1210,300166
DA:1211,300166
DA:1298,0
DA:1299,0
DA:1303,0
DA:1304,0
DA:1384,100040
DA:1385,100040
DA:1500,100102
DA:1503,100102
DA:1504,100102
DA:1505,100102
DA:1584,100122
DA:1585,100122
DA:1628,100094
DA:1631,100094
DA:1632,100094
DA:1634,100094
DA:1635,100094
DA:1639,0
DA:1640,100094
DA:1896,0
DA:1898,0
DA:1899,0
DA:1900,0
DA:2113,200064
DA:2118,200064
DA:2194,0
DA:2196,0
DA:2197,0
DA:2198,0
DA:2199,0
end_of_record
SF:/usr/include/c++/9/bits/stl_vector.h
FN:94,_ZNSt12_Vector_baseINSt7__cxx1112basic_stringIcSt11char_traitsIcESaIcEEESaIS5_EE17_Vector_impl_dataC2Ev
FNDA:1,_ZNSt12_Vector_baseINSt7__cxx1112basic_stringIcSt11char_traitsIcESaIcEEESaIS5_EE17_Vector_impl_dataC2Ev
FN:133,_ZNSt12_Vector_baseINSt7__cxx1112basic_stringIcSt11char_traitsIcESaIcEEESaIS5_EE12_Vector_implC2ERKS6_
FNDA:1,_ZNSt12_Vector_baseINSt7__cxx1112basic_stringIcSt11char_traitsIcESaIcEEESaIS5_EE12_Vector_implC2ERKS6_
FN:273,_ZNSt12_Vector_baseINSt7__cxx1112basic_stringIcSt11char_traitsIcESaIcEEESaIS5_EE19_M_get_Tp_allocatorEv
FNDA:4,_ZNSt12_Vector_baseINSt7__cxx1112basic_stringIcSt11char_traitsIcESaIcEEESaIS5_EE19_M_get_Tp_allocatorEv
FN:290,_ZNSt12_Vector_baseINSt7__cxx1112basic_stringIcSt11char_traitsIcESaIcEEESaIS5_EEC2ERKS6_
FNDA:1,_ZNSt12_Vector_baseINSt7__cxx1112basic_stringIcSt11char_traitsIcESaIcEEESaIS5_EEC2ERKS6_
FN:330,_ZNSt12_Vector_baseINSt7__cxx1112basic_stringIcSt11char_traitsIcESaIcEEESaIS5_EED2Ev
FNDA:2,_ZNSt12_Vector_baseINSt7__cxx1112basic_stringIcSt11char_traitsIcESaIcEEESaIS5_EED2Ev
FN:340,_ZNSt12_Vector_baseINSt7__cxx1112basic_stringIcSt11char_traitsIcESaIcEEESaIS5_EE11_M_allocateEm
FNDA:1,_ZNSt12_Vector_baseINSt7__cxx1112basic_stringIcSt11char_traitsIcESaIcEEESaIS5_EE11_M_allocateEm
FN:347,_ZNSt12_Vector_baseINSt7__cxx1112basic_stringIcSt11char_traitsIcESaIcEEESaIS5_EE13_M_deallocateEPS5_m
FNDA:2,_ZNSt12_Vector_baseINSt7__cxx1112basic_stringIcSt11char_traitsIcESaIcEEESaIS5_EE13_M_deallocateEPS5_m
FN:622,_ZNSt6vectorINSt7__cxx1112basic_stringIcSt11char_traitsIcESaIcEEESaIS5_EEC2ESt16initializer_listIS5_ERKS6_
FNDA:1,_ZNSt6vectorINSt7__cxx1112basic_stringIcSt11char_traitsIcESaIcEEESaIS5_EEC2ESt16initializer_listIS5_ERKS6_
FN:675,_ZNSt6vectorINSt7__cxx1112basic_stringIcSt11char_traitsIcESaIcEEESaIS5_EED2Ev
FNDA:2,_ZNSt6vectorINSt7__cxx1112basic_stringIcSt11char_traitsIcESaIcEEESaIS5_EED2Ev
FN:808,_ZNSt6vectorINSt7__cxx1112basic_stringIcSt11char_traitsIcESaIcEEESaIS5_EE5beginEv
FNDA:1,_ZNSt6vectorINSt7__cxx1112basic_stringIcSt11char_traitsIcESaIcEEESaIS5_EE5beginEv
FN:826,_ZNSt6vectorINSt7__cxx1112basic_stringIcSt11char_traitsIcESaIcEEESaIS5_EE3endEv
FNDA:1,_ZNSt6vectorINSt7__cxx1112basic_stringIcSt11char_traitsIcESaIcEEESaIS5_EE3endEv
FN:1574,_ZNSt6vectorINSt7__cxx1112basic_stringIcSt11char_traitsIcESaIcEEESaIS5_EE19_M_range_initializeIPKS5_EEvT_SB_St20forward_iterator_tag
FNDA:1,_ZNSt6vectorINSt7__cxx1112basic_stringIcSt11char_traitsIcESaIcEEESaIS5_EE19_M_range_initializeIPKS5_EEvT_SB_St20forward_iterator_tag
FN:1764,_ZNSt6vectorINSt7__cxx1112basic_stringIcSt11char_traitsIcESaIcEEESaIS5_EE17_S_check_init_lenEmRKS6_
FNDA:1,_ZNSt6vectorINSt7__cxx1112basic_stringIcSt11char_traitsIcESaIcEEESaIS5_EE17_S_check_init_lenEmRKS6_
FN:1773,_ZNSt6vectorINSt7__cxx1112basic_stringIcSt11char_traitsIcESaIcEEESaIS5_EE11_S_max_sizeERKS6_
FNDA:1,_ZNSt6vectorINSt7__cxx1112basic_stringIcSt11char_traitsIcESaIcEEESaIS5_EE11_S_max_sizeERKS6_
DA:94,1
DA:95,1
DA:96,1
DA:133,1
DA:134,1
DA:135,1
DA:273,4
DA:274,4
DA:290,1
DA:291,1
DA:330,2
DA:332,2
DA:333,2
DA:334,2
DA:340,1
DA:343,1
DA:347,2
DA:350,2
DA:351,2
DA:352,2
DA:622,1
DA:624,1
DA:626,1
DA:628,1
DA:675,2
DA:677,2
DA:678,2
DA:680,2
DA:808,1
DA:809,1
DA:826,1
DA:827,1
DA:1574,1
DA:1577,1
DA:1578,1
DA:1579,1
DA:1580,1
DA:1581,1
DA:1582,1
DA:1584,1
DA:1585,1
DA:1764,1
DA:1766,1
DA:1767,0
DA:1769,1
DA:1773,1
DA:1778,1
DA:1780,1
DA:1781,1
end_of_record
SF:/usr/include/c++/9/bits/stl_map.h
FN:183,_ZNSt3mapINSt7__cxx1112basic_stringIcSt11char_traitsIcESaIcEEESt10shared_ptrI16default_functionESt4lessIS5_ESaISt4pairIKS5_S8_EEEC2Ev
FNDA:1,_ZNSt3mapINSt7__cxx1112basic_stringIcSt11char_traitsIcESaIcEEESt10shared_ptrI16default_functionESt4lessIS5_ESaISt4pairIKS5_S8_EEEC2Ev
FN:183,_ZNSt3mapINSt7__cxx1112basic_stringIcSt11char_traitsIcESaIcEEExSt4lessIS5_ESaISt4pairIKS5_xEEEC2Ev
FNDA:100032,_ZNSt3mapINSt7__cxx1112basic_stringIcSt11char_traitsIcESaIcEEExSt4lessIS5_ESaISt4pairIKS5_xEEEC2Ev
FN:183,_ZNSt3mapINSt7__cxx1112basic_stringIcSt11char_traitsIcESaIcEEES5_St4lessIS5_ESaISt4pairIKS5_S5_EEEC2Ev
FNDA:100032,_ZNSt3mapINSt7__cxx1112basic_stringIcSt11char_traitsIcESaIcEEES5_St4lessIS5_ESaISt4pairIKS5_S5_EEEC2Ev
FN:300,_ZNSt3mapINSt7__cxx1112basic_stringIcSt11char_traitsIcESaIcEEExSt4lessIS5_ESaISt4pairIKS5_xEEED2Ev
FNDA:100032,_ZNSt3mapINSt7__cxx1112basic_stringIcSt11char_traitsIcESaIcEEExSt4lessIS5_ESaISt4pairIKS5_xEEED2Ev
FN:300,_ZNSt3mapINSt7__cxx1112basic_stringIcSt11char_traitsIcESaIcEEES5_St4lessIS5_ESaISt4pairIKS5_S5_EEED2Ev
FNDA:100032,_ZNSt3mapINSt7__cxx1112basic_stringIcSt11char_traitsIcESaIcEEES5_St4lessIS5_ESaISt4pairIKS5_S5_EEED2Ev
FN:300,_ZNSt3mapINSt7__cxx1112basic_stringIcSt11char_traitsIcESaIcEEESt10shared_ptrI16default_functionESt4lessIS5_ESaISt4pairIKS5_S8_EEED2Ev
FNDA:1,_ZNSt3mapINSt7__cxx1112basic_stringIcSt11char_traitsIcESaIcEEESt10shared_ptrI16default_functionESt4lessIS5_ESaISt4pairIKS5_S8_EEED2Ev
FN:372,_ZNSt3mapINSt7__cxx1112basic_stringIcSt11char_traitsIcESaIcEEExSt4lessIS5_ESaISt4pairIKS5_xEEE3endEv
FNDA:12,_ZNSt3mapINSt7__cxx1112basic_stringIcSt11char_traitsIcESaIcEEExSt4lessIS5_ESaISt4pairIKS5_xEEE3endEv
FN:372,_ZNSt3mapINSt7__cxx1112basic_stringIcSt11char_traitsIcESaIcEEES5_St4lessIS5_ESaISt4pairIKS5_S5_EEE3endEv
FNDA:9,_ZNSt3mapINSt7__cxx1112basic_stringIcSt11char_traitsIcESaIcEEES5_St4lessIS5_ESaISt4pairIKS5_S5_EEE3endEv
FN:372,_ZNSt3mapINSt7__cxx1112basic_stringIcSt11char_traitsIcESaIcEEESt10shared_ptrI16default_functionESt4lessIS5_ESaISt4pairIKS5_S8_EEE3endEv
FNDA:200203,_ZNSt3mapINSt7__cxx1112basic_stringIcSt11char_traitsIcESaIcEEESt10shared_ptrI16default_functionESt4lessIS5_ESaISt4pairIKS5_S8_EEE3endEv
FN:535,_ZNSt3mapINSt7__cxx1112basic_stringIcSt11char_traitsIcESaIcEEExSt4lessIS5_ESaISt4pairIKS5_xEEE2atERS9_
FNDA:7,_ZNSt3mapINSt7__cxx1112basic_stringIcSt11char_traitsIcESaIcEEExSt4lessIS5_ESaISt4pairIKS5_xEEE2atERS9_
FN:535,_ZNSt3mapINSt7__cxx1112basic_stringIcSt11char_traitsIcESaIcEEES5_St4lessIS5_ESaISt4pairIKS5_S5_EEE2atERS9_
FNDA:2,_ZNSt3mapINSt7__cxx1112basic_stringIcSt11char_traitsIcESaIcEEES5_St4lessIS5_ESaISt4pairIKS5_S5_EEE2atERS9_
FN:535,_ZNSt3mapINSt7__cxx1112basic_stringIcSt11char_traitsIcESaIcEEESt10shared_ptrI16default_functionESt4lessIS5_ESaISt4pairIKS5_S8_EEE2atERSC_
FNDA:100098,_ZNSt3mapINSt7__cxx1112basic_stringIcSt11char_traitsIcESaIcEEESt10shared_ptrI16default_functionESt4lessIS5_ESaISt4pairIKS5_S8_EEE2atERSC_
FN:808,_ZNSt3mapINSt7__cxx1112basic_stringIcSt11char_traitsIcESaIcEEExSt4lessIS5_ESaISt4pairIKS5_xEEE6insertEOSA_
FNDA:1,_ZNSt3mapINSt7__cxx1112basic_stringIcSt11char_traitsIcESaIcEEExSt4lessIS5_ESaISt4pairIKS5_xEEE6insertEOSA_
FN:808,_ZNSt3mapINSt7__cxx1112basic_stringIcSt11char_traitsIcESaIcEEES5_St4lessIS5_ESaISt4pairIKS5_S5_EEE6insertEOSA_
FNDA:1,_ZNSt3mapINSt7__cxx1112basic_stringIcSt11char_traitsIcESaIcEEES5_St4lessIS5_ESaISt4pairIKS5_S5_EEE6insertEOSA_
FN:808,_ZNSt3mapINSt7__cxx1112basic_stringIcSt11char_traitsIcESaIcEEESt10shared_ptrI16default_functionESt4lessIS5_ESaISt4pairIKS5_S8_EEE6insertEOSD_
FNDA:21,_ZNSt3mapINSt7__cxx1112basic_stringIcSt11char_traitsIcESaIcEEESt10shared_ptrI16default_functionESt4lessIS5_ESaISt4pairIKS5_S8_EEE6insertEOSD_
FN:1141,_ZNKSt3mapINSt7__cxx1112basic_stringIcSt11char_traitsIcESaIcEEESt10shared_ptrI16default_functionESt4lessIS5_ESaISt4pairIKS5_S8_EEE8key_compEv
FNDA:100098,_ZNKSt3mapINSt7__cxx1112basic_stringIcSt11char_traitsIcESaIcEEESt10shared_ptrI16default_functionESt4lessIS5_ESaISt4pairIKS5_S8_EEE8key_compEv
FN:1141,_ZNKSt3mapINSt7__cxx1112basic_stringIcSt11char_traitsIcESaIcEEExSt4lessIS5_ESaISt4pairIKS5_xEEE8key_compEv
FNDA:7,_ZNKSt3mapINSt7__cxx1112basic_stringIcSt11char_traitsIcESaIcEEExSt4lessIS5_ESaISt4pairIKS5_xEEE8key_compEv
FN:1141,_ZNKSt3mapINSt7__cxx1112basic_stringIcSt11char_traitsIcESaIcEEES5_St4lessIS5_ESaISt4pairIKS5_S5_EEE8key_compEv
FNDA:2,_ZNKSt3mapINSt7__cxx1112basic_stringIcSt11char_traitsIcESaIcEEES5_St4lessIS5_ESaISt4pairIKS5_S5_EEE8key_compEv
FN:1168,_ZNSt3mapINSt7__cxx1112basic_stringIcSt11char_traitsIcESaIcEEES5_St4lessIS5_ESaISt4pairIKS5_S5_EEE4findERS9_
FNDA:7,_ZNSt3mapINSt7__cxx1112basic_stringIcSt11char_traitsIcESaIcEEES5_St4lessIS5_ESaISt4pairIKS5_S5_EEE4findERS9_
FN:1168,_ZNSt3mapINSt7__cxx1112basic_stringIcSt11char_traitsIcESaIcEEESt10shared_ptrI16default_functionESt4lessIS5_ESaISt4pairIKS5_S8_EEE4findERSC_
FNDA:100105,_ZNSt3mapINSt7__cxx1112basic_stringIcSt11char_traitsIcESaIcEEESt10shared_ptrI16default_functionESt4lessIS5_ESaISt4pairIKS5_S8_EEE4findERSC_
FN:1168,_ZNSt3mapINSt7__cxx1112basic_stringIcSt11char_traitsIcESaIcEEExSt4lessIS5_ESaISt4pairIKS5_xEEE4findERS9_
FNDA:5,_ZNSt3mapINSt7__cxx1112basic_stringIcSt11char_traitsIcESaIcEEExSt4lessIS5_ESaISt4pairIKS5_xEEE4findERS9_
FN:1257,_ZNSt3mapINSt7__cxx1112basic_stringIcSt11char_traitsIcESaIcEEESt10shared_ptrI16default_functionESt4lessIS5_ESaISt4pairIKS5_S8_EEE11lower_boundERSC_
FNDA:100098,_ZNSt3mapINSt7__cxx1112basic_stringIcSt11char_traitsIcESaIcEEESt10shared_ptrI16default_functionESt4lessIS5_ESaISt4pairIKS5_S8_EEE11lower_boundERSC_
FN:1257,_ZNSt3mapINSt7__cxx1112basic_stringIcSt11char_traitsIcESaIcEEES5_St4lessIS5_ESaISt4pairIKS5_S5_EEE11lower_boundERS9_
FNDA:2,_ZNSt3mapINSt7__cxx1112basic_stringIcSt11char_traitsIcESaIcEEES5_St4lessIS5_ESaISt4pairIKS5_S5_EEE11lower_boundERS9_
FN:1257,_ZNSt3mapINSt7__cxx1112basic_stringIcSt11char_traitsIcESaIcEEExSt4lessIS5_ESaISt4pairIKS5_xEEE11lower_boundERS9_
FNDA:7,_ZNSt3mapINSt7__cxx1112basic_stringIcSt11char_traitsIcESaIcEEExSt4lessIS5_ESaISt4pairIKS5_xEEE11lower_boundERS9_
DA:183,100032
DA:183,100032
DA:183,1
DA:300,100032
DA:300,100032
DA:300,1
DA:372,12
DA:373,12
DA:372,9
DA:373,9
DA:372,200203
DA:373,200203
DA:535,7
DA:537,7
DA:538,7
DA:539,0
DA:540,7
DA:535,2
DA:537,2
DA:538,2
DA:539,0
DA:540,2
DA:535,100098
DA:537,100098
DA:538,100098
DA:539,0
DA:540,100098
DA:808,1
DA:809,1
DA:808,1
DA:809,1
DA:808,21
DA:809,21
DA:1141,7
DA:1142,7
DA:1141,2
DA:1142,2
DA:1141,100098
DA:1142,100098
DA:1168,5
DA:1169,5
DA:1168,7
DA:1169,7
DA:1168,100105
DA:1169,100105
DA:1257,7
DA:1258,7
DA:1257,2
DA:1258,2
DA:1257,100098
DA:1258,100098
end_of_record
SF:/usr/include/gtest/gtest-printers.h
FN:313,_ZN7testing8internal19FormatForComparisonINSt7__cxx1112basic_stringIcSt11char_traitsIcESaIcEEES7_E6FormatERKS7_
FNDA:0,_ZN7testing8internal19FormatForComparisonINSt7__cxx1112basic_stringIcSt11char_traitsIcESaIcEEES7_E6FormatERKS7_
FN:377,_ZN7testing8internal33FormatForComparisonFailureMessageINSt7__cxx1112basic_stringIcSt11char_traitsIcESaIcEEES7_EES7_RKT_RKT0_
FNDA:0,_ZN7testing8internal33FormatForComparisonFailureMessageINSt7__cxx1112basic_stringIcSt11char_traitsIcESaIcEEES7_EES7_RKT_RKT0_
FN:594,_ZN7testing8internal7PrintToERKNSt7__cxx1112basic_stringIcSt11char_traitsIcESaIcEEEPSo
FNDA:0,_ZN7testing8internal7PrintToERKNSt7__cxx1112basic_stringIcSt11char_traitsIcESaIcEEEPSo
FN:670,_ZN7testing8internal16UniversalPrinterINSt7__cxx1112basic_stringIcSt11char_traitsIcESaIcEEEE5PrintERKS7_PSo
FNDA:0,_ZN7testing8internal16UniversalPrinterINSt7__cxx1112basic_stringIcSt11char_traitsIcESaIcEEEE5PrintERKS7_PSo
FN:796,_ZN7testing8internal21UniversalTersePrinterINSt7__cxx1112basic_stringIcSt11char_traitsIcESaIcEEEE5PrintERKS7_PSo
FNDA:0,_ZN7testing8internal21UniversalTersePrinterINSt7__cxx1112basic_stringIcSt11char_traitsIcESaIcEEEE5PrintERKS7_PSo
FN:865,_ZN7testing8internal14UniversalPrintINSt7__cxx1112basic_stringIcSt11char_traitsIcESaIcEEEEEvRKT_PSo
FNDA:0,_ZN7testing8internal14UniversalPrintINSt7__cxx1112basic_stringIcSt11char_traitsIcESaIcEEEEEvRKT_PSo
FN:915,_ZN7testing13PrintToStringINSt7__cxx1112basic_stringIcSt11char_traitsIcESaIcEEEEES6_RKT_
FNDA:0,_ZN7testing13PrintToStringINSt7__cxx1112basic_stringIcSt11char_traitsIcESaIcEEEEES6_RKT_
DA:313,0
DA:314,0
DA:377,0
DA:379,0
DA:594,0
DA:595,0
DA:596,0
DA:670,0
DA:679,0
DA:680,0
DA:796,0
DA:797,0
DA:798,0
DA:865,0
DA:869,0
DA:870,0
DA:915,0
DA:916,0
DA:917,0
DA:918,0
end_of_record
SF:/usr/include/c++/9/ext/atomicity.h
FN:48,_ZN9__gnu_cxxL18__exchange_and_addEPVii
FNDA:63,_ZN9__gnu_cxxL18__exchange_and_addEPVii
FN:52,_ZN9__gnu_cxxL12__atomic_addEPVii
FNDA:21,_ZN9__gnu_cxxL12__atomic_addEPVii
FN:65,_ZN9__gnu_cxxL25__exchange_and_add_singleEPii
FNDA:0,_ZN9__gnu_cxxL25__exchange_and_add_singleEPii
FN:73,_ZN9__gnu_cxxL19__atomic_add_singleEPii
FNDA:0,_ZN9__gnu_cxxL19__atomic_add_singleEPii
FN:78,_ZN9__gnu_cxxL27__exchange_and_add_dispatchEPii
FNDA:63,_ZN9__gnu_cxxL27__exchange_and_add_dispatchEPii
FN:92,_ZN9__gnu_cxxL21__atomic_add_dispatchEPii
FNDA:21,_ZN9__gnu_cxxL21__atomic_add_dispatchEPii
DA:48,63
DA:49,63
DA:52,21
DA:53,21
DA:65,0
DA:67,0
DA:68,0
DA:69,0
DA:73,0
DA:74,0
DA:78,63
DA:81,63
DA:82,63
DA:84,0
DA:92,21
DA:95,21
DA:96,21
DA:98,0
DA:102,21
end_of_record
SF:/usr/include/c++/9/bits/shared_ptr.h
FN:129,_ZNSt10shared_ptrI16default_functionEC2ERKS1_
FNDA:21,_ZNSt10shared_ptrI16default_functionEC2ERKS1_
FN:139,_ZNSt10shared_ptrI4loopEC2IS0_vEEPT_
FNDA:1,_ZNSt10shared_ptrI4loopEC2IS0_vEEPT_
FN:139,_ZNSt10shared_ptrI8multiplyEC2IS0_vEEPT_
FNDA:1,_ZNSt10shared_ptrI8multiplyEC2IS0_vEEPT_
FN:139,_ZNSt10shared_ptrI6divideEC2IS0_vEEPT_
FNDA:1,_ZNSt10shared_ptrI6divideEC2IS0_vEEPT_
FN:139,_ZNSt10shared_ptrI4plusEC2IS0_vEEPT_
FNDA:1,_ZNSt10shared_ptrI4plusEC2IS0_vEEPT_
FN:139,_ZNSt10shared_ptrI5minusEC2IS0_vEEPT_
FNDA:1,_ZNSt10shared_ptrI5minusEC2IS0_vEEPT_
FN:139,_ZNSt10shared_ptrI3modEC2IS0_vEEPT_
FNDA:1,_ZNSt10shared_ptrI3modEC2IS0_vEEPT_
FN:139,_ZNSt10shared_ptrI4copyEC2IS0_vEEPT_
FNDA:1,_ZNSt10shared_ptrI4copyEC2IS0_vEEPT_
FN:139,_ZNSt10shared_ptrI4dropEC2IS0_vEEPT_
FNDA:1,_ZNSt10shared_ptrI4dropEC2IS0_vEEPT_
FN:139,_ZNSt10shared_ptrI5printEC2IS0_vEEPT_
FNDA:1,_ZNSt10shared_ptrI5printEC2IS0_vEEPT_
FN:139,_ZNSt10shared_ptrI4swapEC2IS0_vEEPT_
FNDA:1,_ZNSt10shared_ptrI4swapEC2IS0_vEEPT_
FN:139,_ZNSt10shared_ptrI3rotEC2IS0_vEEPT_
FNDA:1,_ZNSt10shared_ptrI3rotEC2IS0_vEEPT_
FN:139,_ZNSt10shared_ptrI4overEC2IS0_vEEPT_
FNDA:1,_ZNSt10shared_ptrI4overEC2IS0_vEEPT_
FN:139,_ZNSt10shared_ptrI4emitEC2IS0_vEEPT_
FNDA:1,_ZNSt10shared_ptrI4emitEC2IS0_vEEPT_
FN:139,_ZNSt10shared_ptrI2crEC2IS0_vEEPT_
FNDA:1,_ZNSt10shared_ptrI2crEC2IS0_vEEPT_
FN:139,_ZNSt10shared_ptrI5equalEC2IS0_vEEPT_
FNDA:1,_ZNSt10shared_ptrI5equalEC2IS0_vEEPT_
FN:139,_ZNSt10shared_ptrI11dereferenceEC2IS0_vEEPT_
FNDA:1,_ZNSt10shared_ptrI11dereferenceEC2IS0_vEEPT_
FN:139,_ZNSt10shared_ptrI4lessEC2IS0_vEEPT_
FNDA:1,_ZNSt10shared_ptrI4lessEC2IS0_vEEPT_
FN:139,_ZNSt10shared_ptrI9referenceEC2IS0_vEEPT_
FNDA:1,_ZNSt10shared_ptrI9referenceEC2IS0_vEEPT_
FN:139,_ZNSt10shared_ptrI12print_stringEC2IS0_vEEPT_
FNDA:1,_ZNSt10shared_ptrI12print_stringEC2IS0_vEEPT_
FN:139,_ZNSt10shared_ptrI20conditional_operatorEC2IS0_vEEPT_
FNDA:1,_ZNSt10shared_ptrI20conditional_operatorEC2IS0_vEEPT_
FN:139,_ZNSt10shared_ptrI7greaterEC2IS0_vEEPT_
FNDA:1,_ZNSt10shared_ptrI7greaterEC2IS0_vEEPT_
FN:254,_ZNSt10shared_ptrI16default_functionEC2EOS1_
FNDA:21,_ZNSt10shared_ptrI16default_functionEC2EOS1_
FN:263,_ZNSt10shared_ptrI16default_functionEC2I6dividevEEOS_IT_E
FNDA:1,_ZNSt10shared_ptrI16default_functionEC2I6dividevEEOS_IT_E
FN:263,_ZNSt10shared_ptrI16default_functionEC2I9referencevEEOS_IT_E
FNDA:1,_ZNSt10shared_ptrI16default_functionEC2I9referencevEEOS_IT_E
FN:263,_ZNSt10shared_ptrI16default_functionEC2I12print_stringvEEOS_IT_E
FNDA:1,_ZNSt10shared_ptrI16default_functionEC2I12print_stringvEEOS_IT_E
FN:263,_ZNSt10shared_ptrI16default_functionEC2I4plusvEEOS_IT_E
FNDA:1,_ZNSt10shared_ptrI16default_functionEC2I4plusvEEOS_IT_E
FN:263,_ZNSt10shared_ptrI16default_functionEC2I8multiplyvEEOS_IT_E
FNDA:1,_ZNSt10shared_ptrI16default_functionEC2I8multiplyvEEOS_IT_E
FN:263,_ZNSt10shared_ptrI16default_functionEC2I5minusvEEOS_IT_E
FNDA:1,_ZNSt10shared_ptrI16default_functionEC2I5minusvEEOS_IT_E
FN:263,_ZNSt10shared_ptrI16default_functionEC2I20conditional_operatorvEEOS_IT_E
FNDA:1,_ZNSt10shared_ptrI16default_functionEC2I20conditional_operatorvEEOS_IT_E
FN:263,_ZNSt10shared_ptrI16default_functionEC2I11dereferencevEEOS_IT_E
FNDA:1,_ZNSt10shared_ptrI16default_functionEC2I11dereferencevEEOS_IT_E
FN:263,_ZNSt10shared_ptrI16default_functionEC2I4loopvEEOS_IT_E
FNDA:1,_ZNSt10shared_ptrI16default_functionEC2I4loopvEEOS_IT_E
FN:263,_ZNSt10shared_ptrI16default_functionEC2I3modvEEOS_IT_E
FNDA:1,_ZNSt10shared_ptrI16default_functionEC2I3modvEEOS_IT_E
FN:263,_ZNSt10shared_ptrI16default_functionEC2I4copyvEEOS_IT_E
FNDA:1,_ZNSt10shared_ptrI16default_functionEC2I4copyvEEOS_IT_E
FN:263,_ZNSt10shared_ptrI16default_functionEC2I4dropvEEOS_IT_E
FNDA:1,_ZNSt10shared_ptrI16default_functionEC2I4dropvEEOS_IT_E
FN:263,_ZNSt10shared_ptrI16default_functionEC2I5printvEEOS_IT_E
FNDA:1,_ZNSt10shared_ptrI16default_functionEC2I5printvEEOS_IT_E
FN:263,_ZNSt10shared_ptrI16default_functionEC2I5equalvEEOS_IT_E
FNDA:1,_ZNSt10shared_ptrI16default_functionEC2I5equalvEEOS_IT_E
FN:263,_ZNSt10shared_ptrI16default_functionEC2I4swapvEEOS_IT_E
FNDA:1,_ZNSt10shared_ptrI16default_functionEC2I4swapvEEOS_IT_E
FN:263,_ZNSt10shared_ptrI16default_functionEC2I3rotvEEOS_IT_E
FNDA:1,_ZNSt10shared_ptrI16default_functionEC2I3rotvEEOS_IT_E
FN:263,_ZNSt10shared_ptrI16default_functionEC2I7greatervEEOS_IT_E
FNDA:1,_ZNSt10shared_ptrI16default_functionEC2I7greatervEEOS_IT_E
FN:263,_ZNSt10shared_ptrI16default_functionEC2I4overvEEOS_IT_E
FNDA:1,_ZNSt10shared_ptrI16default_functionEC2I4overvEEOS_IT_E
FN:263,_ZNSt10shared_ptrI16default_functionEC2I4emitvEEOS_IT_E
FNDA:1,_ZNSt10shared_ptrI16default_functionEC2I4emitvEEOS_IT_E
FN:263,_ZNSt10shared_ptrI16default_functionEC2I4lessvEEOS_IT_E
FNDA:1,_ZNSt10shared_ptrI16default_functionEC2I4lessvEEOS_IT_E
FN:263,_ZNSt10shared_ptrI16default_functionEC2I2crvEEOS_IT_E
FNDA:1,_ZNSt10shared_ptrI16default_functionEC2I2crvEEOS_IT_E
DA:129,21
DA:139,1
DA:139,1
DA:139,1
DA:139,1
DA:139,1
DA:139,1
DA:139,1
DA:139,1
DA:139,1
DA:139,1
DA:139,1
DA:139,1
DA:139,1
DA:139,1
DA:139,1
DA:139,1
DA:139,1
DA:139,1
DA:139,1
DA:139,1
DA:139,1
DA:254,21
DA:255,21
DA:263,1
DA:264,1
DA:263,1
DA:264,1
DA:263,1
DA:264,1
DA:263,1
DA:264,1
DA:263,1
DA:264,1
DA:263,1
DA:264,1
DA:263,1
DA:264,1
DA:263,1
DA:264,1
DA:263,1
DA:264,1
DA:263,1
DA:264,1
DA:263,1
DA:264,1
DA:263,1
DA:264,1
DA:263,1
DA:264,1
DA:263,1
DA:264,1
DA:263,1
DA:264,1
DA:263,1
DA:264,1
DA:263,1
DA:264,1
DA:263,1
DA:264,1
DA:263,1
DA:264,1
DA:263,1
DA:264,1
DA:263,1
DA:264,1
end_of_record
SF:/usr/include/c++/9/bits/cpp_type_traits.h
FN:428,_ZSt12__miter_baseIPPxET_S2_
FNDA:0,_ZSt12__miter_baseIPPxET_S2_
DA:428,0
DA:429,0
end_of_record
SF:/usr/include/c++/9/bits/stl_iterator_base_funcs.h
FN:98,_ZSt10__distanceIPcENSt15iterator_traitsIT_E15difference_typeES2_S2_St26random_access_iterator_tag
FNDA:700598,_ZSt10__distanceIPcENSt15iterator_traitsIT_E15difference_typeES2_S2_St26random_access_iterator_tag
FN:98,_ZSt10__distanceIPKcENSt15iterator_traitsIT_E15difference_typeES3_S3_St26random_access_iterator_tag
FNDA:0,_ZSt10__distanceIPKcENSt15iterator_traitsIT_E15difference_typeES3_S3_St26random_access_iterator_tag
FN:98,_ZSt10__distanceIPKNSt7__cxx1112basic_stringIcSt11char_traitsIcESaIcEEEENSt15iterator_traitsIT_E15difference_typeES9_S9_St26random_access_iterator_tag
FNDA:1,_ZSt10__distanceIPKNSt7__cxx1112basic_stringIcSt11char_traitsIcESaIcEEEENSt15iterator_traitsIT_E15difference_typeES9_S9_St26random_access_iterator_tag
FN:138,_ZSt8distanceIPcENSt15iterator_traitsIT_E15difference_typeES2_S2_
FNDA:700598,_ZSt8distanceIPcENSt15iterator_traitsIT_E15difference_typeES2_S2_
FN:138,_ZSt8distanceIPKcENSt15iterator_traitsIT_E15difference_typeES3_S3_
FNDA:0,_ZSt8distanceIPKcENSt15iterator_traitsIT_E15difference_typeES3_S3_
FN:138,_ZSt8distanceIPKNSt7__cxx1112basic_stringIcSt11char_traitsIcESaIcEEEENSt15iterator_traitsIT_E15difference_typeES9_S9_
FNDA:1,_ZSt8distanceIPKNSt7__cxx1112basic_stringIcSt11char_traitsIcESaIcEEEENSt15iterator_traitsIT_E15difference_typeES9_S9_
DA:98,700598
DA:104,700598
DA:98,0
DA:104,0
DA:98,1
DA:104,1
DA:138,700598
DA:141,700598
DA:142,1401200
DA:138,0
DA:141,0
DA:142,0
DA:138,1
DA:141,1
DA:142,2
end_of_record
SF:/home/macsia/Project_cpp/21201_polukhin/Interpreter/mine_functions_list.hpp
FN:6,_ZN19mine_functions_list13add_mine_funcENSt7__cxx1112basic_stringIcSt11char_traitsIcESaIcEEES5_
FNDA:1,_ZN19mine_functions_list13add_mine_funcENSt7__cxx1112basic_stringIcSt11char_traitsIcESaIcEEES5_
FN:11,_ZN19mine_functions_list7in_listENSt7__cxx1112basic_stringIcSt11char_traitsIcESaIcEEE
FNDA:7,_ZN19mine_functions_list7in_listENSt7__cxx1112basic_stringIcSt11char_traitsIcESaIcEEE
FN:16,_ZN19mine_functions_list12body_by_nameENSt7__cxx1112basic_stringIcSt11char_traitsIcESaIcEEE
FNDA:2,_ZN19mine_functions_list12body_by_nameENSt7__cxx1112basic_stringIcSt11char_traitsIcESaIcEEE
DA:6,1
DA:8,1
DA:9,1
DA:11,7
DA:13,7
DA:16,2
DA:18,2
end_of_record
SF:/usr/include/c++/9/ext/type_traits.h
FN:152,_ZN9__gnu_cxx17__is_null_pointerIcEEbPT_
FNDA:700598,_ZN9__gnu_cxx17__is_null_pointerIcEEbPT_
FN:152,_ZN9__gnu_cxx17__is_null_pointerIKcEEbPT_
FNDA:0,_ZN9__gnu_cxx17__is_null_pointerIKcEEbPT_
DA:152,700598
DA:153,700598
DA:152,0
DA:153,0
end_of_record
SF:/usr/include/c++/9/ext/aligned_buffer.h
FN:64,_ZN9__gnu_cxx16__aligned_membufISt4pairIKNSt7__cxx1112basic_stringIcSt11char_traitsIcESaIcEEExEE7_M_addrEv
FNDA:16,_ZN9__gnu_cxx16__aligned_membufISt4pairIKNSt7__cxx1112basic_stringIcSt11char_traitsIcESaIcEEExEE7_M_addrEv
FN:64,_ZN9__gnu_cxx16__aligned_membufISt4pairIKNSt7__cxx1112basic_stringIcSt11char_traitsIcESaIcEEES7_EE7_M_addrEv
FNDA:6,_ZN9__gnu_cxx16__aligned_membufISt4pairIKNSt7__cxx1112basic_stringIcSt11char_traitsIcESaIcEEES7_EE7_M_addrEv
FN:64,_ZN9__gnu_cxx16__aligned_membufISt4pairIKNSt7__cxx1112basic_stringIcSt11char_traitsIcESaIcEEESt10shared_ptrI16default_functionEEE7_M_addrEv
FNDA:200238,_ZN9__gnu_cxx16__aligned_membufISt4pairIKNSt7__cxx1112basic_stringIcSt11char_traitsIcESaIcEEESt10shared_ptrI16default_functionEEE7_M_addrEv
FN:68,_ZNK9__gnu_cxx16__aligned_membufISt4pairIKNSt7__cxx1112basic_stringIcSt11char_traitsIcESaIcEEExEE7_M_addrEv
FNDA:13,_ZNK9__gnu_cxx16__aligned_membufISt4pairIKNSt7__cxx1112basic_stringIcSt11char_traitsIcESaIcEEExEE7_M_addrEv
FN:68,_ZNK9__gnu_cxx16__aligned_membufISt4pairIKNSt7__cxx1112basic_stringIcSt11char_traitsIcESaIcEEES7_EE7_M_addrEv
FNDA:6,_ZNK9__gnu_cxx16__aligned_membufISt4pairIKNSt7__cxx1112basic_stringIcSt11char_traitsIcESaIcEEES7_EE7_M_addrEv
FN:68,_ZNK9__gnu_cxx16__aligned_membufISt4pairIKNSt7__cxx1112basic_stringIcSt11char_traitsIcESaIcEEESt10shared_ptrI16default_functionEEE7_M_addrEv
FNDA:901120,_ZNK9__gnu_cxx16__aligned_membufISt4pairIKNSt7__cxx1112basic_stringIcSt11char_traitsIcESaIcEEESt10shared_ptrI16default_functionEEE7_M_addrEv
FN:72,_ZN9__gnu_cxx16__aligned_membufISt4pairIKNSt7__cxx1112basic_stringIcSt11char_traitsIcESaIcEEExEE6_M_ptrEv
FNDA:16,_ZN9__gnu_cxx16__aligned_membufISt4pairIKNSt7__cxx1112basic_stringIcSt11char_traitsIcESaIcEEExEE6_M_ptrEv
FN:72,_ZN9__gnu_cxx16__aligned_membufISt4pairIKNSt7__cxx1112basic_stringIcSt11char_traitsIcESaIcEEES7_EE6_M_ptrEv
FNDA:6,_ZN9__gnu_cxx16__aligned_membufISt4pairIKNSt7__cxx1112basic_stringIcSt11char_traitsIcESaIcEEES7_EE6_M_ptrEv
FN:72,_ZN9__gnu_cxx16__aligned_membufISt4pairIKNSt7__cxx1112basic_stringIcSt11char_traitsIcESaIcEEESt10shared_ptrI16default_functionEEE6_M_ptrEv
FNDA:200238,_ZN9__gnu_cxx16__aligned_membufISt4pairIKNSt7__cxx1112basic_stringIcSt11char_traitsIcESaIcEEESt10shared_ptrI16default_functionEEE6_M_ptrEv
FN:76,_ZNK9__gnu_cxx16__aligned_membufISt4pairIKNSt7__cxx1112basic_stringIcSt11char_traitsIcESaIcEEExEE6_M_ptrEv
FNDA:13,_ZNK9__gnu_cxx16__aligned_membufISt4pairIKNSt7__cxx1112basic_stringIcSt11char_traitsIcESaIcEEExEE6_M_ptrEv
FN:76,_ZNK9__gnu_cxx16__aligned_membufISt4pairIKNSt7__cxx1112basic_stringIcSt11char_traitsIcESaIcEEES7_EE6_M_ptrEv
FNDA:6,_ZNK9__gnu_cxx16__aligned_membufISt4pairIKNSt7__cxx1112basic_stringIcSt11char_traitsIcESaIcEEES7_EE6_M_ptrEv
FN:76,_ZNK9__gnu_cxx16__aligned_membufISt4pairIKNSt7__cxx1112basic_stringIcSt11char_traitsIcESaIcEEESt10shared_ptrI16default_functionEEE6_M_ptrEv
FNDA:901120,_ZNK9__gnu_cxx16__aligned_membufISt4pairIKNSt7__cxx1112basic_stringIcSt11char_traitsIcESaIcEEESt10shared_ptrI16default_functionEEE6_M_ptrEv
DA:64,16
DA:65,16
DA:64,6
DA:65,6
DA:64,200238
DA:65,200238
DA:68,13
DA:69,13
DA:68,6
DA:69,6
DA:68,901120
DA:69,901120
DA:72,16
DA:73,16
DA:72,6
DA:73,6
DA:72,200238
DA:73,200238
DA:76,13
DA:77,13
DA:76,6
DA:77,6
DA:76,901120
DA:77,901120
end_of_record
SF:/home/macsia/Project_cpp/21201_polukhin/Interpreter/default_function_interface.hpp
end_of_record
SF:/usr/include/c++/9/bits/stl_construct.h
FN:74,_ZSt10_ConstructINSt7__cxx1112basic_stringIcSt11char_traitsIcESaIcEEEJRKS5_EEvPT_DpOT0_
FNDA:12,_ZSt10_ConstructINSt7__cxx1112basic_stringIcSt11char_traitsIcESaIcEEEJRKS5_EEvPT_DpOT0_
FN:97,_ZSt8_DestroyINSt7__cxx1112basic_stringIcSt11char_traitsIcESaIcEEEEvPT_
FNDA:13,_ZSt8_DestroyINSt7__cxx1112basic_stringIcSt11char_traitsIcESaIcEEEEvPT_
FN:105,_ZNSt12_Destroy_auxILb0EE9__destroyIPNSt7__cxx1112basic_stringIcSt11char_traitsIcESaIcEEEEEvT_S9_
FNDA:2,_ZNSt12_Destroy_auxILb0EE9__destroyIPNSt7__cxx1112basic_stringIcSt11char_traitsIcESaIcEEEEEvT_S9_
FN:127,_ZSt8_DestroyIPNSt7__cxx1112basic_stringIcSt11char_traitsIcESaIcEEEEvT_S7_
FNDA:2,_ZSt8_DestroyIPNSt7__cxx1112basic_stringIcSt11char_traitsIcESaIcEEEEvT_S7_
FN:203,_ZSt8_DestroyIPNSt7__cxx1112basic_stringIcSt11char_traitsIcESaIcEEES5_EvT_S7_RSaIT0_E
FNDA:2,_ZSt8_DestroyIPNSt7__cxx1112basic_stringIcSt11char_traitsIcESaIcEEES5_EvT_S7_RSaIT0_E
DA:74,12
DA:75,12
DA:97,13
DA:98,13
DA:105,15
DA:107,15
DA:108,13
DA:109,2
DA:127,2
DA:137,2
DA:138,2
DA:203,2
DA:206,2
DA:207,2
end_of_record
SF:/usr/include/c++/9/bits/stl_function.h
FN:385,_ZNKSt4lessINSt7__cxx1112basic_stringIcSt11char_traitsIcESaIcEEEEclERKS5_S8_
FNDA:1001250,_ZNKSt4lessINSt7__cxx1112basic_stringIcSt11char_traitsIcESaIcEEEEclERKS5_S8_
FN:1151,_ZNKSt10_Select1stISt4pairIKNSt7__cxx1112basic_stringIcSt11char_traitsIcESaIcEEExEEclERS8_
FNDA:1,_ZNKSt10_Select1stISt4pairIKNSt7__cxx1112basic_stringIcSt11char_traitsIcESaIcEEExEEclERS8_
FN:1151,_ZNKSt10_Select1stISt4pairIKNSt7__cxx1112basic_stringIcSt11char_traitsIcESaIcEEES6_EEclERS8_
FNDA:1,_ZNKSt10_Select1stISt4pairIKNSt7__cxx1112basic_stringIcSt11char_traitsIcESaIcEEES6_EEclERS8_
FN:1151,_ZNKSt10_Select1stISt4pairIKNSt7__cxx1112basic_stringIcSt11char_traitsIcESaIcEEESt10shared_ptrI16default_functionEEEclERSB_
FNDA:41,_ZNKSt10_Select1stISt4pairIKNSt7__cxx1112basic_stringIcSt11char_traitsIcESaIcEEESt10shared_ptrI16default_functionEEEclERSB_
FN:1155,_ZNKSt10_Select1stISt4pairIKNSt7__cxx1112basic_stringIcSt11char_traitsIcESaIcEEExEEclERKS8_
FNDA:13,_ZNKSt10_Select1stISt4pairIKNSt7__cxx1112basic_stringIcSt11char_traitsIcESaIcEEExEEclERKS8_
FN:1155,_ZNKSt10_Select1stISt4pairIKNSt7__cxx1112basic_stringIcSt11char_traitsIcESaIcEEES6_EEclERKS8_
FNDA:6,_ZNKSt10_Select1stISt4pairIKNSt7__cxx1112basic_stringIcSt11char_traitsIcESaIcEEES6_EEclERKS8_
FN:1155,_ZNKSt10_Select1stISt4pairIKNSt7__cxx1112basic_stringIcSt11char_traitsIcESaIcEEESt10shared_ptrI16default_functionEEEclERKSB_
FNDA:901120,_ZNKSt10_Select1stISt4pairIKNSt7__cxx1112basic_stringIcSt11char_traitsIcESaIcEEESt10shared_ptrI16default_functionEEEclERKSB_
DA:385,1001250
DA:386,1001250
DA:1151,1
DA:1152,1
DA:1151,1
DA:1152,1
DA:1151,41
DA:1152,41
DA:1155,13
DA:1156,13
DA:1155,6
DA:1156,6
DA:1155,901120
DA:1156,901120
end_of_record
SF:/usr/include/c++/9/bits/stl_iterator.h
FN:803,_ZN9__gnu_cxx17__normal_iteratorIPNSt7__cxx1112basic_stringIcSt11char_traitsIcESaIcEEESt6vectorIS6_SaIS6_EEEC2ERKS7_
FNDA:2,_ZN9__gnu_cxx17__normal_iteratorIPNSt7__cxx1112basic_stringIcSt11char_traitsIcESaIcEEESt6vectorIS6_SaIS6_EEEC2ERKS7_
FN:816,_ZNK9__gnu_cxx17__normal_iteratorIPNSt7__cxx1112basic_stringIcSt11char_traitsIcESaIcEEESt6vectorIS6_SaIS6_EEEdeEv
FNDA:12,_ZNK9__gnu_cxx17__normal_iteratorIPNSt7__cxx1112basic_stringIcSt11char_traitsIcESaIcEEESt6vectorIS6_SaIS6_EEEdeEv
FN:824,_ZN9__gnu_cxx17__normal_iteratorIPNSt7__cxx1112basic_stringIcSt11char_traitsIcESaIcEEESt6vectorIS6_SaIS6_EEEppEv
FNDA:12,_ZN9__gnu_cxx17__normal_iteratorIPNSt7__cxx1112basic_stringIcSt11char_traitsIcESaIcEEESt6vectorIS6_SaIS6_EEEppEv
FN:868,_ZNK9__gnu_cxx17__normal_iteratorIPNSt7__cxx1112basic_stringIcSt11char_traitsIcESaIcEEESt6vectorIS6_SaIS6_EEE4baseEv
FNDA:26,_ZNK9__gnu_cxx17__normal_iteratorIPNSt7__cxx1112basic_stringIcSt11char_traitsIcESaIcEEESt6vectorIS6_SaIS6_EEE4baseEv
FN:904,_ZN9__gnu_cxxneIPNSt7__cxx1112basic_stringIcSt11char_traitsIcESaIcEEESt6vectorIS6_SaIS6_EEEEbRKNS_17__normal_iteratorIT_T0_EESG_
FNDA:13,_ZN9__gnu_cxxneIPNSt7__cxx1112basic_stringIcSt11char_traitsIcESaIcEEESt6vectorIS6_SaIS6_EEEEbRKNS_17__normal_iteratorIT_T0_EESG_
DA:803,2
DA:804,2
DA:816,12
DA:817,12
DA:824,12
DA:826,12
DA:827,12
DA:868,26
DA:869,26
DA:904,13
DA:907,13
end_of_record
SF:/home/macsia/Project_cpp/21201_polukhin/Interpreter/default_functions_factory.hpp
FN:12,_ZN25default_functions_factory20get_factory_instanceEv
FNDA:100053,_ZN25default_functions_factory20get_factory_instanceEv
FN:18,_ZN25default_functions_factory7in_listERNSt7__cxx1112basic_stringIcSt11char_traitsIcESaIcEEE
FNDA:100105,_ZN25default_functions_factory7in_listERNSt7__cxx1112basic_stringIcSt11char_traitsIcESaIcEEE
FN:23,_ZN25default_functions_factory12call_by_nameERNSt7__cxx1112basic_stringIcSt11char_traitsIcESaIcEEERSt5stackIxSt5dequeIxSaIxEEERNS0_18basic_stringstreamIcS3_S4_EESF_
FNDA:100098,_ZN25default_functions_factory12call_by_nameERNSt7__cxx1112basic_stringIcSt11char_traitsIcESaIcEEERSt5stackIxSt5dequeIxSaIxEEERNS0_18basic_stringstreamIcS3_S4_EESF_
FN:28,_ZN25default_functions_factory20add_default_functionESt10shared_ptrI16default_functionE
FNDA:21,_ZN25default_functions_factory20add_default_functionESt10shared_ptrI16default_functionE
FN:34,_ZN25default_functions_factoryC2Ev
FNDA:1,_ZN25default_functions_factoryC2Ev
DA:12,100053
DA:14,100053
DA:15,100053
DA:18,100105
DA:20,100105
DA:23,100098
DA:25,100098
DA:26,100091
DA:28,21
DA:30,21
DA:31,21
DA:34,1
end_of_record
SF:/usr/include/c++/9/bits/move.h
FN:47,_ZSt11__addressofINSt7__cxx1112basic_stringIcSt11char_traitsIcESaIcEEEEPT_RS6_
FNDA:25,_ZSt11__addressofINSt7__cxx1112basic_stringIcSt11char_traitsIcESaIcEEEEPT_RS6_
FN:74,_ZSt7forwardINSt7__cxx1112basic_stringIcSt11char_traitsIcESaIcEEEEOT_RNSt16remove_referenceIS6_E4typeE
FNDA:21,_ZSt7forwardINSt7__cxx1112basic_stringIcSt11char_traitsIcESaIcEEEEOT_RNSt16remove_referenceIS6_E4typeE
FN:74,_ZSt7forwardISt4pairIKNSt7__cxx1112basic_stringIcSt11char_traitsIcESaIcEEESt10shared_ptrI16default_functionEEEOT_RNSt16remove_referenceISC_E4typeE
FNDA:147,_ZSt7forwardISt4pairIKNSt7__cxx1112basic_stringIcSt11char_traitsIcESaIcEEESt10shared_ptrI16default_functionEEEOT_RNSt16remove_referenceISC_E4typeE
FN:74,_ZSt7forwardIRxEOT_RNSt16remove_referenceIS1_E4typeE
FNDA:1,_ZSt7forwardIRxEOT_RNSt16remove_referenceIS1_E4typeE
FN:74,_ZSt7forwardIRNSt7__cxx1112basic_stringIcSt11char_traitsIcESaIcEEEEOT_RNSt16remove_referenceIS7_E4typeE
FNDA:3,_ZSt7forwardIRNSt7__cxx1112basic_stringIcSt11char_traitsIcESaIcEEEEOT_RNSt16remove_referenceIS7_E4typeE
FN:74,_ZSt7forwardIRSt10shared_ptrI16default_functionEEOT_RNSt16remove_referenceIS4_E4typeE
FNDA:21,_ZSt7forwardIRSt10shared_ptrI16default_functionEEOT_RNSt16remove_referenceIS4_E4typeE
FN:74,_ZSt7forwardIRKNSt7__cxx1112basic_stringIcSt11char_traitsIcESaIcEEEEOT_RNSt16remove_referenceIS8_E4typeE
FNDA:12,_ZSt7forwardIRKNSt7__cxx1112basic_stringIcSt11char_traitsIcESaIcEEEEOT_RNSt16remove_referenceIS8_E4typeE
FN:74,_ZSt7forwardISt4pairIKNSt7__cxx1112basic_stringIcSt11char_traitsIcESaIcEEES6_EEOT_RNSt16remove_referenceIS9_E4typeE
FNDA:7,_ZSt7forwardISt4pairIKNSt7__cxx1112basic_stringIcSt11char_traitsIcESaIcEEES6_EEOT_RNSt16remove_referenceIS9_E4typeE
FN:74,_ZSt7forwardISt4pairIKNSt7__cxx1112basic_stringIcSt11char_traitsIcESaIcEEExEEOT_RNSt16remove_referenceIS9_E4typeE
FNDA:7,_ZSt7forwardISt4pairIKNSt7__cxx1112basic_stringIcSt11char_traitsIcESaIcEEExEEOT_RNSt16remove_referenceIS9_E4typeE
FN:74,_ZSt7forwardISt17_Rb_tree_iteratorISt4pairIKNSt7__cxx1112basic_stringIcSt11char_traitsIcESaIcEEESt10shared_ptrI16default_functionEEEEOT_RNSt16remove_referenceISE_E4typeE
FNDA:21,_ZSt7forwardISt17_Rb_tree_iteratorISt4pairIKNSt7__cxx1112basic_stringIcSt11char_traitsIcESaIcEEESt10shared_ptrI16default_functionEEEEOT_RNSt16remove_referenceISE_E4typeE
FN:74,_ZSt7forwardIxEOT_RNSt16remove_referenceIS0_E4typeE
FNDA:300366,_ZSt7forwardIxEOT_RNSt16remove_referenceIS0_E4typeE
FN:74,_ZSt7forwardISt17_Rb_tree_iteratorISt4pairIKNSt7__cxx1112basic_stringIcSt11char_traitsIcESaIcEEES7_EEEOT_RNSt16remove_referenceISB_E4typeE
FNDA:1,_ZSt7forwardISt17_Rb_tree_iteratorISt4pairIKNSt7__cxx1112basic_stringIcSt11char_traitsIcESaIcEEES7_EEEOT_RNSt16remove_referenceISB_E4typeE
FN:74,_ZSt7forwardISt17_Rb_tree_iteratorISt4pairIKNSt7__cxx1112basic_stringIcSt11char_traitsIcESaIcEEExEEEOT_RNSt16remove_referenceISB_E4typeE
FNDA:1,_ZSt7forwardISt17_Rb_tree_iteratorISt4pairIKNSt7__cxx1112basic_stringIcSt11char_traitsIcESaIcEEExEEEOT_RNSt16remove_referenceISB_E4typeE
FN:74,_ZSt7forwardIbEOT_RNSt16remove_referenceIS0_E4typeE
FNDA:23,_ZSt7forwardIbEOT_RNSt16remove_referenceIS0_E4typeE
FN:74,_ZSt7forwardIRPSt13_Rb_tree_nodeISt4pairIKNSt7__cxx1112basic_stringIcSt11char_traitsIcESaIcEEESt10shared_ptrI16default_functionEEEEOT_RNSt16remove_referenceISG_E4typeE
FNDA:21,_ZSt7forwardIRPSt13_Rb_tree_nodeISt4pairIKNSt7__cxx1112basic_stringIcSt11char_traitsIcESaIcEEESt10shared_ptrI16default_functionEEEEOT_RNSt16remove_referenceISG_E4typeE
FN:74,_ZSt7forwardIRPSt18_Rb_tree_node_baseEOT_RNSt16remove_referenceIS3_E4typeE
FNDA:23,_ZSt7forwardIRPSt18_Rb_tree_node_baseEOT_RNSt16remove_referenceIS3_E4typeE
FN:74,_ZSt7forwardIRPSt13_Rb_tree_nodeISt4pairIKNSt7__cxx1112basic_stringIcSt11char_traitsIcESaIcEEExEEEOT_RNSt16remove_referenceISD_E4typeE
FNDA:1,_ZSt7forwardIRPSt13_Rb_tree_nodeISt4pairIKNSt7__cxx1112basic_stringIcSt11char_traitsIcESaIcEEExEEEOT_RNSt16remove_referenceISD_E4typeE
FN:74,_ZSt7forwardIRPSt13_Rb_tree_nodeISt4pairIKNSt7__cxx1112basic_stringIcSt11char_traitsIcESaIcEEES7_EEEOT_RNSt16remove_referenceISD_E4typeE
FNDA:1,_ZSt7forwardIRPSt13_Rb_tree_nodeISt4pairIKNSt7__cxx1112basic_stringIcSt11char_traitsIcESaIcEEES7_EEEOT_RNSt16remove_referenceISD_E4typeE
FN:99,_ZSt4moveIRSt10shared_ptrI4plusEEONSt16remove_referenceIT_E4typeEOS5_
FNDA:1,_ZSt4moveIRSt10shared_ptrI4plusEEONSt16remove_referenceIT_E4typeEOS5_
FN:99,_ZSt4moveIRSt10shared_ptrI6divideEEONSt16remove_referenceIT_E4typeEOS5_
FNDA:1,_ZSt4moveIRSt10shared_ptrI6divideEEONSt16remove_referenceIT_E4typeEOS5_
FN:99,_ZSt4moveIRSt10shared_ptrI16default_functionEEONSt16remove_referenceIT_E4typeEOS5_
FNDA:21,_ZSt4moveIRSt10shared_ptrI16default_functionEEONSt16remove_referenceIT_E4typeEOS5_
FN:99,_ZSt4moveIRSt10shared_ptrI8multiplyEEONSt16remove_referenceIT_E4typeEOS5_
FNDA:1,_ZSt4moveIRSt10shared_ptrI8multiplyEEONSt16remove_referenceIT_E4typeEOS5_
FN:99,_ZSt4moveIRPNSt7__cxx1112basic_stringIcSt11char_traitsIcESaIcEEEEONSt16remove_referenceIT_E4typeEOS9_
FNDA:0,_ZSt4moveIRPNSt7__cxx1112basic_stringIcSt11char_traitsIcESaIcEEEEONSt16remove_referenceIT_E4typeEOS9_
FN:99,_ZSt4moveIRPNSt7__cxx1118basic_stringstreamIcSt11char_traitsIcESaIcEEEEONSt16remove_referenceIT_E4typeEOS9_
FNDA:0,_ZSt4moveIRPNSt7__cxx1118basic_stringstreamIcSt11char_traitsIcESaIcEEEEONSt16remove_referenceIT_E4typeEOS9_
FN:99,_ZSt4moveIRSt4pairIKNSt7__cxx1112basic_stringIcSt11char_traitsIcESaIcEEExEEONSt16remove_referenceIT_E4typeEOSB_
FNDA:1,_ZSt4moveIRSt4pairIKNSt7__cxx1112basic_stringIcSt11char_traitsIcESaIcEEExEEONSt16remove_referenceIT_E4typeEOSB_
FN:99,_ZSt4moveIRSt4pairIKNSt7__cxx1112basic_stringIcSt11char_traitsIcESaIcEEES6_EEONSt16remove_referenceIT_E4typeEOSB_
FNDA:1,_ZSt4moveIRSt4pairIKNSt7__cxx1112basic_stringIcSt11char_traitsIcESaIcEEES6_EEONSt16remove_referenceIT_E4typeEOSB_
FN:99,_ZSt4moveIRxEONSt16remove_referenceIT_E4typeEOS2_
FNDA:200244,_ZSt4moveIRxEONSt16remove_referenceIT_E4typeEOS2_
FN:99,_ZSt4moveIRSt4pairIKNSt7__cxx1112basic_stringIcSt11char_traitsIcESaIcEEESt10shared_ptrI16default_functionEEEONSt16remove_referenceIT_E4typeEOSE_
FNDA:21,_ZSt4moveIRSt4pairIKNSt7__cxx1112basic_stringIcSt11char_traitsIcESaIcEEESt10shared_ptrI16default_functionEEEONSt16remove_referenceIT_E4typeEOSE_
FN:99,_ZSt4moveIRSaIcEEONSt16remove_referenceIT_E4typeEOS3_
FNDA:0,_ZSt4moveIRSaIcEEONSt16remove_referenceIT_E4typeEOS3_
FN:99,_ZSt4moveIRNSt7__cxx1112basic_stringIcSt11char_traitsIcESaIcEEEEONSt16remove_referenceIT_E4typeEOS8_
FNDA:600496,_ZSt4moveIRNSt7__cxx1112basic_stringIcSt11char_traitsIcESaIcEEEEONSt16remove_referenceIT_E4typeEOS8_
FN:99,_ZSt4moveIRSt10shared_ptrI2crEEONSt16remove_referenceIT_E4typeEOS5_
FNDA:1,_ZSt4moveIRSt10shared_ptrI2crEEONSt16remove_referenceIT_E4typeEOS5_
FN:99,_ZSt4moveIRSt10shared_ptrI4loopEEONSt16remove_referenceIT_E4typeEOS5_
FNDA:1,_ZSt4moveIRSt10shared_ptrI4loopEEONSt16remove_referenceIT_E4typeEOS5_
FN:99,_ZSt4moveIRSt10shared_ptrI20conditional_operatorEEONSt16remove_referenceIT_E4typeEOS5_
FNDA:1,_ZSt4moveIRSt10shared_ptrI20conditional_operatorEEONSt16remove_referenceIT_E4typeEOS5_
FN:99,_ZSt4moveIRSt10shared_ptrI12print_stringEEONSt16remove_referenceIT_E4typeEOS5_
FNDA:1,_ZSt4moveIRSt10shared_ptrI12print_stringEEONSt16remove_referenceIT_E4typeEOS5_
FN:99,_ZSt4moveIRSt10shared_ptrI11dereferenceEEONSt16remove_referenceIT_E4typeEOS5_
FNDA:1,_ZSt4moveIRSt10shared_ptrI11dereferenceEEONSt16remove_referenceIT_E4typeEOS5_
FN:99,_ZSt4moveIRSt10shared_ptrI9referenceEEONSt16remove_referenceIT_E4typeEOS5_
FNDA:1,_ZSt4moveIRSt10shared_ptrI9referenceEEONSt16remove_referenceIT_E4typeEOS5_
FN:99,_ZSt4moveIRSt10shared_ptrI5equalEEONSt16remove_referenceIT_E4typeEOS5_
FNDA:1,_ZSt4moveIRSt10shared_ptrI5equalEEONSt16remove_referenceIT_E4typeEOS5_
FN:99,_ZSt4moveIRSt10shared_ptrI7greaterEEONSt16remove_referenceIT_E4typeEOS5_
FNDA:1,_ZSt4moveIRSt10shared_ptrI7greaterEEONSt16remove_referenceIT_E4typeEOS5_
FN:99,_ZSt4moveIRSt10shared_ptrI4lessEEONSt16remove_referenceIT_E4typeEOS5_
FNDA:1,_ZSt4moveIRSt10shared_ptrI4lessEEONSt16remove_referenceIT_E4typeEOS5_
FN:99,_ZSt4moveIRSt10shared_ptrI5minusEEONSt16remove_referenceIT_E4typeEOS5_
FNDA:1,_ZSt4moveIRSt10shared_ptrI5minusEEONSt16remove_referenceIT_E4typeEOS5_
FN:99,_ZSt4moveIRSt10shared_ptrI4emitEEONSt16remove_referenceIT_E4typeEOS5_
FNDA:1,_ZSt4moveIRSt10shared_ptrI4emitEEONSt16remove_referenceIT_E4typeEOS5_
FN:99,_ZSt4moveIRSt10shared_ptrI4overEEONSt16remove_referenceIT_E4typeEOS5_
FNDA:1,_ZSt4moveIRSt10shared_ptrI4overEEONSt16remove_referenceIT_E4typeEOS5_
FN:99,_ZSt4moveIRSt10shared_ptrI3rotEEONSt16remove_referenceIT_E4typeEOS5_
FNDA:1,_ZSt4moveIRSt10shared_ptrI3rotEEONSt16remove_referenceIT_E4typeEOS5_
FN:99,_ZSt4moveIRSt10shared_ptrI4swapEEONSt16remove_referenceIT_E4typeEOS5_
FNDA:1,_ZSt4moveIRSt10shared_ptrI4swapEEONSt16remove_referenceIT_E4typeEOS5_
FN:99,_ZSt4moveIRSt10shared_ptrI5printEEONSt16remove_referenceIT_E4typeEOS5_
FNDA:1,_ZSt4moveIRSt10shared_ptrI5printEEONSt16remove_referenceIT_E4typeEOS5_
FN:99,_ZSt4moveIRSt10shared_ptrI4dropEEONSt16remove_referenceIT_E4typeEOS5_
FNDA:1,_ZSt4moveIRSt10shared_ptrI4dropEEONSt16remove_referenceIT_E4typeEOS5_
FN:99,_ZSt4moveIRSt10shared_ptrI4copyEEONSt16remove_referenceIT_E4typeEOS5_
FNDA:1,_ZSt4moveIRSt10shared_ptrI4copyEEONSt16remove_referenceIT_E4typeEOS5_
FN:99,_ZSt4moveIRSt10shared_ptrI3modEEONSt16remove_referenceIT_E4typeEOS5_
FNDA:1,_ZSt4moveIRSt10shared_ptrI3modEEONSt16remove_referenceIT_E4typeEOS5_
DA:47,25
DA:48,25
DA:74,23
DA:75,23
DA:74,21
DA:75,21
DA:74,21
DA:75,21
DA:74,3
DA:75,3
DA:74,1
DA:75,1
DA:74,147
DA:75,147
DA:74,7
DA:75,7
DA:74,7
DA:75,7
DA:74,21
DA:75,21
DA:74,12
DA:75,12
DA:74,300366
DA:75,300366
DA:74,1
DA:75,1
DA:74,1
DA:75,1
DA:74,21
DA:75,21
DA:74,23
DA:75,23
DA:74,1
DA:75,1
DA:74,1
DA:75,1
DA:99,1
DA:100,1
DA:99,0
DA:100,0
DA:99,600496
DA:100,600496
DA:99,21
DA:100,21
DA:99,200244
DA:100,200244
DA:99,1
DA:100,1
DA:99,1
DA:100,1
DA:99,0
DA:100,0
DA:99,0
DA:100,0
DA:99,1
DA:100,1
DA:99,21
DA:100,21
DA:99,1
DA:100,1
DA:99,1
DA:100,1
DA:99,1
DA:100,1
DA:99,1
DA:100,1
DA:99,1
DA:100,1
DA:99,1
DA:100,1
DA:99,1
DA:100,1
DA:99,1
DA:100,1
DA:99,1
DA:100,1
DA:99,1
DA:100,1
DA:99,1
DA:100,1
DA:99,1
DA:100,1
DA:99,1
DA:100,1
DA:99,1
DA:100,1
DA:99,1
DA:100,1
DA:99,1
DA:100,1
DA:99,1
DA:100,1
DA:99,1
DA:100,1
DA:99,1
DA:100,1
end_of_record
SF:/usr/include/x86_64-linux-gnu/c++/9/bits/gthr-default.h
FN:248,_ZL18__gthread_active_pv
FNDA:84,_ZL18__gthread_active_pv
DA:248,84
DA:252,84
end_of_record
SF:/usr/include/c++/9/bits/stl_uninitialized.h
FN:76,_ZNSt20__uninitialized_copyILb0EE13__uninit_copyIPKNSt7__cxx1112basic_stringIcSt11char_traitsIcESaIcEEEPS7_EET0_T_SC_SB_
FNDA:1,_ZNSt20__uninitialized_copyILb0EE13__uninit_copyIPKNSt7__cxx1112basic_stringIcSt11char_traitsIcESaIcEEEPS7_EET0_T_SC_SB_
FN:115,_ZSt18uninitialized_copyIPKNSt7__cxx1112basic_stringIcSt11char_traitsIcESaIcEEEPS5_ET0_T_SA_S9_
FNDA:1,_ZSt18uninitialized_copyIPKNSt7__cxx1112basic_stringIcSt11char_traitsIcESaIcEEEPS5_ET0_T_SA_S9_
FN:305,_ZSt22__uninitialized_copy_aIPKNSt7__cxx1112basic_stringIcSt11char_traitsIcESaIcEEEPS5_S5_ET0_T_SA_S9_RSaIT1_E
FNDA:1,_ZSt22__uninitialized_copy_aIPKNSt7__cxx1112basic_stringIcSt11char_traitsIcESaIcEEEPS5_S5_ET0_T_SA_S9_RSaIT1_E
DA:76,1
DA:79,1
DA:82,13
DA:83,12
DA:84,1
DA:86,0
DA:88,0
DA:89,0
DA:115,1
DA:134,1
DA:140,1
DA:305,1
DA:307,1
end_of_record
SF:/home/macsia/Project_cpp/21201_polukhin/Interpreter/Test/Tests.cpp
FN:4,_Z5checkNSt7__cxx1112basic_stringIcSt11char_traitsIcESaIcEEES4_
FNDA:100022,_Z5checkNSt7__cxx1112basic_stringIcSt11char_traitsIcESaIcEEES4_
FN:13,_Z15check_exceptionNSt7__cxx1112basic_stringIcSt11char_traitsIcESaIcEEE
FNDA:9,_Z15check_exceptionNSt7__cxx1112basic_stringIcSt11char_traitsIcESaIcEEE
FN:21,_ZN25int_and_string_first_TestC2Ev
FNDA:1,_ZN25int_and_string_first_TestC2Ev
FN:21,_ZN25int_and_string_first_Test8TestBodyEv
FNDA:1,_ZN25int_and_string_first_Test8TestBodyEv
FN:38,_ZN24default_funcs_first_TestC2Ev
FNDA:1,_ZN24default_funcs_first_TestC2Ev
FN:38,_ZN24default_funcs_first_Test8TestBodyEv
FNDA:1,_ZN24default_funcs_first_Test8TestBodyEv
FN:47,_ZN13if_first_TestC2Ev
FNDA:1,_ZN13if_first_TestC2Ev
FN:47,_ZN13if_first_Test8TestBodyEv
FNDA:1,_ZN13if_first_Test8TestBodyEv
FN:58,_ZN15loop_first_TestC2Ev
FNDA:1,_ZN15loop_first_TestC2Ev
FN:58,_ZN15loop_first_Test8TestBodyEv
FNDA:1,_ZN15loop_first_Test8TestBodyEv
FN:66,_ZN21mine_funcs_first_TestC2Ev
FNDA:1,_ZN21mine_funcs_first_TestC2Ev
FN:66,_ZN21mine_funcs_first_Test8TestBodyEv
FNDA:1,_ZN21mine_funcs_first_Test8TestBodyEv
FN:71,_ZN15vars_first_TestC2Ev
FNDA:1,_ZN15vars_first_TestC2Ev
FN:71,_ZN15vars_first_Test8TestBodyEv
FNDA:1,_ZN15vars_first_Test8TestBodyEv
FN:76,_ZN14file_last_TestC2Ev
FNDA:1,_ZN14file_last_TestC2Ev
FN:76,_ZN14file_last_Test8TestBodyEv
FNDA:1,_ZN14file_last_Test8TestBodyEv
FN:90,main
FNDA:1,main
DA:4,100022
DA:6,200044
DA:7,200044
DA:8,100022
DA:9,200044
DA:10,100022
DA:11,100022
DA:13,9
DA:15,18
DA:16,9
DA:17,18
DA:18,9
DA:19,9
DA:21,1
DA:23,100001
DA:25,100000
DA:27,15
DA:28,13
DA:30,12
DA:32,1
DA:33,1
DA:34,1
DA:35,1
DA:21,1
DA:38,1
DA:40,2
DA:41,1
DA:42,1
DA:43,1
DA:44,1
DA:45,1
DA:38,1
DA:47,1
DA:49,1
DA:50,1
DA:51,1
DA:52,1
DA:53,1
DA:54,1
DA:55,1
DA:56,1
DA:47,1
DA:58,1
DA:60,1
DA:61,1
DA:62,1
DA:63,1
DA:64,1
DA:58,1
DA:66,1
DA:68,1
DA:69,1
DA:66,1
DA:71,1
DA:73,1
DA:74,1
DA:71,1
DA:76,1
DA:78,2
DA:79,1
DA:80,1
DA:81,2
DA:82,2
DA:83,1
DA:84,2
DA:85,2
DA:86,1
DA:87,1
DA:88,1
DA:76,1
DA:90,1
DA:92,1
DA:93,1
end_of_record
SF:/home/macsia/Project_cpp/21201_polukhin/Interpreter/Interpreter.hpp
end_of_record
SF:/usr/include/c++/9/bits/deque.tcc
FN:162,_ZNSt5dequeIxSaIxEE12emplace_backIJxEEEvDpOT_
FNDA:100122,_ZNSt5dequeIxSaIxEE12emplace_backIJxEEEvDpOT_
FN:479,_ZNSt5dequeIxSaIxEE16_M_push_back_auxIJxEEEvDpOT_
FNDA:0,_ZNSt5dequeIxSaIxEE16_M_push_back_auxIJxEEEvDpOT_
FN:555,_ZNSt5dequeIxSaIxEE15_M_pop_back_auxEv
FNDA:0,_ZNSt5dequeIxSaIxEE15_M_pop_back_auxEv
FN:926,_ZNSt5dequeIxSaIxEE17_M_reallocate_mapEmb
FNDA:0,_ZNSt5dequeIxSaIxEE17_M_reallocate_mapEmb
DA:162,100122
DA:165,100122
DA:166,100122
DA:168,100122
DA:171,100122
DA:174,0
DA:178,100122
DA:479,0
DA:487,0
DA:488,0
DA:491,0
DA:492,0
DA:496,0
DA:502,0
DA:504,0
DA:511,0
DA:555,0
DA:558,0
DA:559,0
DA:560,0
DA:561,0
DA:563,0
DA:926,0
DA:929,0
DA:930,0
DA:931,0
DA:934,0
DA:936,0
DA:937,0
DA:938,0
DA:939,0
DA:940,0
DA:941,0
DA:944,0
DA:945,0
DA:946,0
DA:950,0
DA:951,0
DA:954,0
DA:955,0
DA:956,0
DA:957,0
DA:958,0
DA:960,0
DA:962,0
DA:963,0
DA:966,0
DA:967,0
DA:968,0
end_of_record
SF:/usr/include/c++/9/new
FN:173,_ZnwmPv
FNDA:100180,_ZnwmPv
FN:179,_ZdlPvS_
FNDA:0,_ZdlPvS_
DA:173,100180
DA:174,100180
DA:179,0
end_of_record
SF:/usr/include/c++/9/ext/new_allocator.h
FN:80,_ZN9__gnu_cxx13new_allocatorINSt7__cxx1112basic_stringIcSt11char_traitsIcESaIcEEEEC2Ev
FNDA:1,_ZN9__gnu_cxx13new_allocatorINSt7__cxx1112basic_stringIcSt11char_traitsIcESaIcEEEEC2Ev
FN:80,_ZN9__gnu_cxx13new_allocatorISt13_Rb_tree_nodeISt4pairIKNSt7__cxx1112basic_stringIcSt11char_traitsIcESaIcEEExEEEC2Ev
FNDA:100032,_ZN9__gnu_cxx13new_allocatorISt13_Rb_tree_nodeISt4pairIKNSt7__cxx1112basic_stringIcSt11char_traitsIcESaIcEEExEEEC2Ev
FN:80,_ZN9__gnu_cxx13new_allocatorISt13_Rb_tree_nodeISt4pairIKNSt7__cxx1112basic_stringIcSt11char_traitsIcESaIcEEES8_EEEC2Ev
FNDA:100032,_ZN9__gnu_cxx13new_allocatorISt13_Rb_tree_nodeISt4pairIKNSt7__cxx1112basic_stringIcSt11char_traitsIcESaIcEEES8_EEEC2Ev
FN:80,_ZN9__gnu_cxx13new_allocatorISt13_Rb_tree_nodeISt4pairIKNSt7__cxx1112basic_stringIcSt11char_traitsIcESaIcEEESt10shared_ptrI16default_functionEEEEC2Ev
FNDA:1,_ZN9__gnu_cxx13new_allocatorISt13_Rb_tree_nodeISt4pairIKNSt7__cxx1112basic_stringIcSt11char_traitsIcESaIcEEESt10shared_ptrI16default_functionEEEEC2Ev
FN:80,_ZN9__gnu_cxx13new_allocatorIPxEC2Ev
FNDA:400128,_ZN9__gnu_cxx13new_allocatorIPxEC2Ev
FN:80,_ZN9__gnu_cxx13new_allocatorIxEC2Ev
FNDA:200064,_ZN9__gnu_cxx13new_allocatorIxEC2Ev
FN:80,_ZN9__gnu_cxx13new_allocatorIcEC2Ev
FNDA:0,_ZN9__gnu_cxx13new_allocatorIcEC2Ev
FN:83,_ZN9__gnu_cxx13new_allocatorINSt7__cxx1112basic_stringIcSt11char_traitsIcESaIcEEEEC2ERKS7_
FNDA:2,_ZN9__gnu_cxx13new_allocatorINSt7__cxx1112basic_stringIcSt11char_traitsIcESaIcEEEEC2ERKS7_
FN:83,_ZN9__gnu_cxx13new_allocatorIcEC2ERKS1_
FNDA:0,_ZN9__gnu_cxx13new_allocatorIcEC2ERKS1_
FN:89,_ZN9__gnu_cxx13new_allocatorISt13_Rb_tree_nodeISt4pairIKNSt7__cxx1112basic_stringIcSt11char_traitsIcESaIcEEExEEED2Ev
FNDA:100032,_ZN9__gnu_cxx13new_allocatorISt13_Rb_tree_nodeISt4pairIKNSt7__cxx1112basic_stringIcSt11char_traitsIcESaIcEEExEEED2Ev
FN:89,_ZN9__gnu_cxx13new_allocatorIPxED2Ev
FNDA:400128,_ZN9__gnu_cxx13new_allocatorIPxED2Ev
FN:89,_ZN9__gnu_cxx13new_allocatorINSt7__cxx1112basic_stringIcSt11char_traitsIcESaIcEEEED2Ev
FNDA:4,_ZN9__gnu_cxx13new_allocatorINSt7__cxx1112basic_stringIcSt11char_traitsIcESaIcEEEED2Ev
FN:89,_ZN9__gnu_cxx13new_allocatorISt13_Rb_tree_nodeISt4pairIKNSt7__cxx1112basic_stringIcSt11char_traitsIcESaIcEEES8_EEED2Ev
FNDA:100032,_ZN9__gnu_cxx13new_allocatorISt13_Rb_tree_nodeISt4pairIKNSt7__cxx1112basic_stringIcSt11char_traitsIcESaIcEEES8_EEED2Ev
FN:89,_ZN9__gnu_cxx13new_allocatorIxED2Ev
FNDA:200064,_ZN9__gnu_cxx13new_allocatorIxED2Ev
FN:89,_ZN9__gnu_cxx13new_allocatorISt13_Rb_tree_nodeISt4pairIKNSt7__cxx1112basic_stringIcSt11char_traitsIcESaIcEEESt10shared_ptrI16default_functionEEEED2Ev
FNDA:1,_ZN9__gnu_cxx13new_allocatorISt13_Rb_tree_nodeISt4pairIKNSt7__cxx1112basic_stringIcSt11char_traitsIcESaIcEEESt10shared_ptrI16default_functionEEEED2Ev
FN:89,_ZN9__gnu_cxx13new_allocatorIcED2Ev
FNDA:0,_ZN9__gnu_cxx13new_allocatorIcED2Ev
FN:102,_ZN9__gnu_cxx13new_allocatorINSt7__cxx1112basic_stringIcSt11char_traitsIcESaIcEEEE8allocateEmPKv
FNDA:1,_ZN9__gnu_cxx13new_allocatorINSt7__cxx1112basic_stringIcSt11char_traitsIcESaIcEEEE8allocateEmPKv
FN:102,_ZN9__gnu_cxx13new_allocatorIxE8allocateEmPKv
FNDA:200064,_ZN9__gnu_cxx13new_allocatorIxE8allocateEmPKv
FN:102,_ZN9__gnu_cxx13new_allocatorIPxE8allocateEmPKv
FNDA:200064,_ZN9__gnu_cxx13new_allocatorIPxE8allocateEmPKv
FN:102,_ZN9__gnu_cxx13new_allocatorISt13_Rb_tree_nodeISt4pairIKNSt7__cxx1112basic_stringIcSt11char_traitsIcESaIcEEESt10shared_ptrI16default_functionEEEE8allocateEmPKv
FNDA:21,_ZN9__gnu_cxx13new_allocatorISt13_Rb_tree_nodeISt4pairIKNSt7__cxx1112basic_stringIcSt11char_traitsIcESaIcEEESt10shared_ptrI16default_functionEEEE8allocateEmPKv
FN:102,_ZN9__gnu_cxx13new_allocatorISt13_Rb_tree_nodeISt4pairIKNSt7__cxx1112basic_stringIcSt11char_traitsIcESaIcEEES8_EEE8allocateEmPKv
FNDA:1,_ZN9__gnu_cxx13new_allocatorISt13_Rb_tree_nodeISt4pairIKNSt7__cxx1112basic_stringIcSt11char_traitsIcESaIcEEES8_EEE8allocateEmPKv
FN:102,_ZN9__gnu_cxx13new_allocatorISt13_Rb_tree_nodeISt4pairIKNSt7__cxx1112basic_stringIcSt11char_traitsIcESaIcEEExEEE8allocateEmPKv
FNDA:1,_ZN9__gnu_cxx13new_allocatorISt13_Rb_tree_nodeISt4pairIKNSt7__cxx1112basic_stringIcSt11char_traitsIcESaIcEEExEEE8allocateEmPKv
FN:119,_ZN9__gnu_cxx13new_allocatorIPxE10deallocateEPS1_m
FNDA:200064,_ZN9__gnu_cxx13new_allocatorIPxE10deallocateEPS1_m
FN:119,_ZN9__gnu_cxx13new_allocatorISt13_Rb_tree_nodeISt4pairIKNSt7__cxx1112basic_stringIcSt11char_traitsIcESaIcEEESt10shared_ptrI16default_functionEEEE10deallocateEPSE_m
FNDA:21,_ZN9__gnu_cxx13new_allocatorISt13_Rb_tree_nodeISt4pairIKNSt7__cxx1112basic_stringIcSt11char_traitsIcESaIcEEESt10shared_ptrI16default_functionEEEE10deallocateEPSE_m
FN:119,_ZN9__gnu_cxx13new_allocatorINSt7__cxx1112basic_stringIcSt11char_traitsIcESaIcEEEE10deallocateEPS6_m
FNDA:2,_ZN9__gnu_cxx13new_allocatorINSt7__cxx1112basic_stringIcSt11char_traitsIcESaIcEEEE10deallocateEPS6_m
FN:119,_ZN9__gnu_cxx13new_allocatorIxE10deallocateEPxm
FNDA:200064,_ZN9__gnu_cxx13new_allocatorIxE10deallocateEPxm
FN:119,_ZN9__gnu_cxx13new_allocatorISt13_Rb_tree_nodeISt4pairIKNSt7__cxx1112basic_stringIcSt11char_traitsIcESaIcEEES8_EEE10deallocateEPSB_m
FNDA:1,_ZN9__gnu_cxx13new_allocatorISt13_Rb_tree_nodeISt4pairIKNSt7__cxx1112basic_stringIcSt11char_traitsIcESaIcEEES8_EEE10deallocateEPSB_m
FN:119,_ZN9__gnu_cxx13new_allocatorISt13_Rb_tree_nodeISt4pairIKNSt7__cxx1112basic_stringIcSt11char_traitsIcESaIcEEExEEE10deallocateEPSB_m
FNDA:1,_ZN9__gnu_cxx13new_allocatorISt13_Rb_tree_nodeISt4pairIKNSt7__cxx1112basic_stringIcSt11char_traitsIcESaIcEEExEEE10deallocateEPSB_m
FN:132,_ZNK9__gnu_cxx13new_allocatorISt13_Rb_tree_nodeISt4pairIKNSt7__cxx1112basic_stringIcSt11char_traitsIcESaIcEEES8_EEE8max_sizeEv
FNDA:1,_ZNK9__gnu_cxx13new_allocatorISt13_Rb_tree_nodeISt4pairIKNSt7__cxx1112basic_stringIcSt11char_traitsIcESaIcEEES8_EEE8max_sizeEv
FN:132,_ZNK9__gnu_cxx13new_allocatorISt13_Rb_tree_nodeISt4pairIKNSt7__cxx1112basic_stringIcSt11char_traitsIcESaIcEEESt10shared_ptrI16default_functionEEEE8max_sizeEv
FNDA:21,_ZNK9__gnu_cxx13new_allocatorISt13_Rb_tree_nodeISt4pairIKNSt7__cxx1112basic_stringIcSt11char_traitsIcESaIcEEESt10shared_ptrI16default_functionEEEE8max_sizeEv
FN:132,_ZNK9__gnu_cxx13new_allocatorIPxE8max_sizeEv
FNDA:200064,_ZNK9__gnu_cxx13new_allocatorIPxE8max_sizeEv
FN:132,_ZNK9__gnu_cxx13new_allocatorIxE8max_sizeEv
FNDA:200064,_ZNK9__gnu_cxx13new_allocatorIxE8max_sizeEv
FN:132,_ZNK9__gnu_cxx13new_allocatorINSt7__cxx1112basic_stringIcSt11char_traitsIcESaIcEEEE8max_sizeEv
FNDA:2,_ZNK9__gnu_cxx13new_allocatorINSt7__cxx1112basic_stringIcSt11char_traitsIcESaIcEEEE8max_sizeEv
FN:132,_ZNK9__gnu_cxx13new_allocatorISt13_Rb_tree_nodeISt4pairIKNSt7__cxx1112basic_stringIcSt11char_traitsIcESaIcEEExEEE8max_sizeEv
FNDA:1,_ZNK9__gnu_cxx13new_allocatorISt13_Rb_tree_nodeISt4pairIKNSt7__cxx1112basic_stringIcSt11char_traitsIcESaIcEEExEEE8max_sizeEv
FN:144,_ZN9__gnu_cxx13new_allocatorISt13_Rb_tree_nodeISt4pairIKNSt7__cxx1112basic_stringIcSt11char_traitsIcESaIcEEESt10shared_ptrI16default_functionEEEE9constructISD_JSD_EEEvPT_DpOT0_
FNDA:21,_ZN9__gnu_cxx13new_allocatorISt13_Rb_tree_nodeISt4pairIKNSt7__cxx1112basic_stringIcSt11char_traitsIcESaIcEEESt10shared_ptrI16default_functionEEEE9constructISD_JSD_EEEvPT_DpOT0_
FN:144,_ZN9__gnu_cxx13new_allocatorISt13_Rb_tree_nodeISt4pairIKNSt7__cxx1112basic_stringIcSt11char_traitsIcESaIcEEES8_EEE9constructISA_JSA_EEEvPT_DpOT0_
FNDA:1,_ZN9__gnu_cxx13new_allocatorISt13_Rb_tree_nodeISt4pairIKNSt7__cxx1112basic_stringIcSt11char_traitsIcESaIcEEES8_EEE9constructISA_JSA_EEEvPT_DpOT0_
FN:144,_ZN9__gnu_cxx13new_allocatorISt13_Rb_tree_nodeISt4pairIKNSt7__cxx1112basic_stringIcSt11char_traitsIcESaIcEEExEEE9constructISA_JSA_EEEvPT_DpOT0_
FNDA:1,_ZN9__gnu_cxx13new_allocatorISt13_Rb_tree_nodeISt4pairIKNSt7__cxx1112basic_stringIcSt11char_traitsIcESaIcEEExEEE9constructISA_JSA_EEEvPT_DpOT0_
FN:144,_ZN9__gnu_cxx13new_allocatorIxE9constructIxJxEEEvPT_DpOT0_
FNDA:100122,_ZN9__gnu_cxx13new_allocatorIxE9constructIxJxEEEvPT_DpOT0_
FN:150,_ZN9__gnu_cxx13new_allocatorISt13_Rb_tree_nodeISt4pairIKNSt7__cxx1112basic_stringIcSt11char_traitsIcESaIcEEExEEE7destroyISA_EEvPT_
FNDA:1,_ZN9__gnu_cxx13new_allocatorISt13_Rb_tree_nodeISt4pairIKNSt7__cxx1112basic_stringIcSt11char_traitsIcESaIcEEExEEE7destroyISA_EEvPT_
FN:150,_ZN9__gnu_cxx13new_allocatorIxE7destroyIxEEvPT_
FNDA:100094,_ZN9__gnu_cxx13new_allocatorIxE7destroyIxEEvPT_
FN:150,_ZN9__gnu_cxx13new_allocatorISt13_Rb_tree_nodeISt4pairIKNSt7__cxx1112basic_stringIcSt11char_traitsIcESaIcEEES8_EEE7destroyISA_EEvPT_
FNDA:1,_ZN9__gnu_cxx13new_allocatorISt13_Rb_tree_nodeISt4pairIKNSt7__cxx1112basic_stringIcSt11char_traitsIcESaIcEEES8_EEE7destroyISA_EEvPT_
FN:150,_ZN9__gnu_cxx13new_allocatorISt13_Rb_tree_nodeISt4pairIKNSt7__cxx1112basic_stringIcSt11char_traitsIcESaIcEEESt10shared_ptrI16default_functionEEEE7destroyISD_EEvPT_
FNDA:21,_ZN9__gnu_cxx13new_allocatorISt13_Rb_tree_nodeISt4pairIKNSt7__cxx1112basic_stringIcSt11char_traitsIcESaIcEEESt10shared_ptrI16default_functionEEEE7destroyISD_EEvPT_
DA:80,400128
DA:80,200064
DA:80,100032
DA:80,100032
DA:80,1
DA:80,1
DA:80,0
DA:83,2
DA:83,0
DA:89,400128
DA:89,200064
DA:89,4
DA:89,100032
DA:89,100032
DA:89,1
DA:89,0
DA:102,1
DA:104,1
DA:105,0
DA:114,1
DA:102,1
DA:104,1
DA:105,0
DA:114,1
DA:102,21
DA:104,21
DA:105,0
DA:114,21
DA:102,200064
DA:104,200064
DA:105,0
DA:114,200064
DA:102,200064
DA:104,200064
DA:105,0
DA:114,200064
DA:102,1
DA:104,1
DA:105,0
DA:114,1
DA:119,1
DA:128,1
DA:129,1
DA:119,1
DA:128,1
DA:129,1
DA:119,200064
DA:128,200064
DA:129,200064
DA:119,21
DA:128,21
DA:129,21
DA:119,2
DA:128,2
DA:129,2
DA:119,200064
DA:128,200064
DA:129,200064
DA:132,1
DA:135,1
DA:132,1
DA:135,1
DA:132,21
DA:135,21
DA:132,200064
DA:135,200064
DA:132,200064
DA:135,200064
DA:132,2
DA:135,2
DA:144,1
DA:146,1
DA:144,1
DA:146,1
DA:144,21
DA:146,21
DA:144,100122
DA:146,100122
DA:150,1
DA:152,1
DA:150,1
DA:152,1
DA:150,21
DA:152,21
DA:150,100094
DA:152,100094
end_of_record
SF:/usr/include/c++/9/ext/string_conversions.h
FN:54,_ZN9__gnu_cxx6__stoaIlicJiEEET0_PFT_PKT1_PPS3_DpT2_EPKcS5_PmS9_
FNDA:100098,_ZN9__gnu_cxx6__stoaIlicJiEEET0_PFT_PKT1_PPS3_DpT2_EPKcS5_PmS9_
FN:63,_ZZN9__gnu_cxx6__stoaIlicJiEEET0_PFT_PKT1_PPS3_DpT2_EPKcS5_PmS9_EN11_Save_errnoC2Ev
FNDA:100098,_ZZN9__gnu_cxx6__stoaIlicJiEEET0_PFT_PKT1_PPS3_DpT2_EPKcS5_PmS9_EN11_Save_errnoC2Ev
FN:64,_ZZN9__gnu_cxx6__stoaIlicJiEEET0_PFT_PKT1_PPS3_DpT2_EPKcS5_PmS9_EN11_Save_errnoD2Ev
FNDA:100098,_ZZN9__gnu_cxx6__stoaIlicJiEEET0_PFT_PKT1_PPS3_DpT2_EPKcS5_PmS9_EN11_Save_errnoD2Ev
FN:73,_ZZN9__gnu_cxx6__stoaIlicJiEEET0_PFT_PKT1_PPS3_DpT2_EPKcS5_PmS9_EN10_Range_chk6_S_chkElSt17integral_constantIbLb1EE
FNDA:100098,_ZZN9__gnu_cxx6__stoaIlicJiEEET0_PFT_PKT1_PPS3_DpT2_EPKcS5_PmS9_EN10_Range_chk6_S_chkElSt17integral_constantIbLb1EE
FN:99,_ZN9__gnu_cxx12__to_xstringINSt7__cxx1112basic_stringIcSt11char_traitsIcESaIcEEEcEET_PFiPT0_mPKS8_P13__va_list_tagEmSB_z
FNDA:200000,_ZN9__gnu_cxx12__to_xstringINSt7__cxx1112basic_stringIcSt11char_traitsIcESaIcEEEcEET_PFiPT0_mPKS8_P13__va_list_tagEmSB_z
DA:54,100098
DA:63,100098
DA:64,100098
DA:66,100098
DA:73,100098
DA:76,100098
DA:80,100098
DA:82,100098
DA:83,0
DA:84,200196
DA:85,100098
DA:86,0
DA:88,100098
DA:90,100098
DA:91,0
DA:93,200196
DA:99,200000
DA:105,200000
DA:109,200000
DA:111,200000
DA:113,200000
DA:115,200000
end_of_record
SF:/usr/include/gtest/gtest-message.h
end_of_record
SF:/usr/include/c++/9/bits/char_traits.h
FN:315,_ZNSt11char_traitsIcE7compareEPKcS2_m
FNDA:100023,_ZNSt11char_traitsIcE7compareEPKcS2_m
FN:336,_ZNSt11char_traitsIcE6lengthEPKc
FNDA:12,_ZNSt11char_traitsIcE6lengthEPKc
FN:368,_ZNSt11char_traitsIcE4copyEPcPKcm
FNDA:0,_ZNSt11char_traitsIcE4copyEPcPKcm
DA:315,100023
DA:317,100023
DA:318,0
DA:332,100023
DA:336,12
DA:342,12
DA:368,0
DA:370,0
DA:371,0
DA:372,0
end_of_record
SF:/home/macsia/Project_cpp/21201_polukhin/Interpreter/auto_registration.hpp
FN:13,_ZN17auto_registration17register_functionI4overEC2Ev
FNDA:1,_ZN17auto_registration17register_functionI4overEC2Ev
FN:13,_ZN17auto_registration17register_functionI8multiplyEC2Ev
FNDA:1,_ZN17auto_registration17register_functionI8multiplyEC2Ev
FN:13,_ZN17auto_registration17register_functionI6divideEC2Ev
FNDA:1,_ZN17auto_registration17register_functionI6divideEC2Ev
FN:13,_ZN17auto_registration17register_functionI4plusEC2Ev
FNDA:1,_ZN17auto_registration17register_functionI4plusEC2Ev
FN:13,_ZN17auto_registration17register_functionI5minusEC2Ev
FNDA:1,_ZN17auto_registration17register_functionI5minusEC2Ev
FN:13,_ZN17auto_registration17register_functionI3modEC2Ev
FNDA:1,_ZN17auto_registration17register_functionI3modEC2Ev
FN:13,_ZN17auto_registration17register_functionI4copyEC2Ev
FNDA:1,_ZN17auto_registration17register_functionI4copyEC2Ev
FN:13,_ZN17auto_registration17register_functionI4dropEC2Ev
FNDA:1,_ZN17auto_registration17register_functionI4dropEC2Ev
FN:13,_ZN17auto_registration17register_functionI5printEC2Ev
FNDA:1,_ZN17auto_registration17register_functionI5printEC2Ev
FN:13,_ZN17auto_registration17register_functionI4swapEC2Ev
FNDA:1,_ZN17auto_registration17register_functionI4swapEC2Ev
FN:13,_ZN17auto_registration17register_functionI3rotEC2Ev
FNDA:1,_ZN17auto_registration17register_functionI3rotEC2Ev
FN:13,_ZN17auto_registration17register_functionI4loopEC2Ev
FNDA:1,_ZN17auto_registration17register_functionI4loopEC2Ev
FN:13,_ZN17auto_registration17register_functionI4emitEC2Ev
FNDA:1,_ZN17auto_registration17register_functionI4emitEC2Ev
FN:13,_ZN17auto_registration17register_functionI2crEC2Ev
FNDA:1,_ZN17auto_registration17register_functionI2crEC2Ev
FN:13,_ZN17auto_registration17register_functionI4lessEC2Ev
FNDA:1,_ZN17auto_registration17register_functionI4lessEC2Ev
FN:13,_ZN17auto_registration17register_functionI7greaterEC2Ev
FNDA:1,_ZN17auto_registration17register_functionI7greaterEC2Ev
FN:13,_ZN17auto_registration17register_functionI5equalEC2Ev
FNDA:1,_ZN17auto_registration17register_functionI5equalEC2Ev
FN:13,_ZN17auto_registration17register_functionI9referenceEC2Ev
FNDA:1,_ZN17auto_registration17register_functionI9referenceEC2Ev
FN:13,_ZN17auto_registration17register_functionI11dereferenceEC2Ev
FNDA:1,_ZN17auto_registration17register_functionI11dereferenceEC2Ev
FN:13,_ZN17auto_registration17register_functionI12print_stringEC2Ev
FNDA:1,_ZN17auto_registration17register_functionI12print_stringEC2Ev
FN:13,_ZN17auto_registration17register_functionI20conditional_operatorEC2Ev
FNDA:1,_ZN17auto_registration17register_functionI20conditional_operatorEC2Ev
DA:13,1
DA:15,2
DA:16,1
DA:17,1
DA:13,1
DA:15,2
DA:16,1
DA:17,1
DA:13,1
DA:15,2
DA:16,1
DA:17,1
DA:13,1
DA:15,2
DA:16,1
DA:17,1
DA:13,1
DA:15,2
DA:16,1
DA:17,1
DA:13,1
DA:15,2
DA:16,1
DA:17,1
DA:13,1
DA:15,2
DA:16,1
DA:17,1
DA:13,1
DA:15,2
DA:16,1
DA:17,1
DA:13,1
DA:15,2
DA:16,1
DA:17,1
DA:13,1
DA:15,2
DA:16,1
DA:17,1
DA:13,1
DA:15,2
DA:16,1
DA:17,1
DA:13,1
DA:15,2
DA:16,1
DA:17,1
DA:13,1
DA:15,2
DA:16,1
DA:17,1
DA:13,1
DA:15,2
DA:16,1
DA:17,1
DA:13,1
DA:15,2
DA:16,1
DA:17,1
DA:13,1
DA:15,2
DA:16,1
DA:17,1
DA:13,1
DA:15,2
DA:16,1
DA:17,1
DA:13,1
DA:15,2
DA:16,1
DA:17,1
DA:13,1
DA:15,2
DA:16,1
DA:17,1
DA:13,1
DA:15,2
DA:16,1
DA:17,1
DA:13,1
DA:15,2
DA:16,1
DA:17,1
end_of_record
SF:/home/macsia/Project_cpp/21201_polukhin/Interpreter/variables_list.hpp
FN:7,_ZN14variables_list12add_variableENSt7__cxx1112basic_stringIcSt11char_traitsIcESaIcEEE
FNDA:1,_ZN14variables_list12add_variableENSt7__cxx1112basic_stringIcSt11char_traitsIcESaIcEEE
FN:15,_ZN14variables_list7in_listENSt7__cxx1112basic_stringIcSt11char_traitsIcESaIcEEE
FNDA:5,_ZN14variables_list7in_listENSt7__cxx1112basic_stringIcSt11char_traitsIcESaIcEEE
FN:20,_ZN14variables_list15pointer_by_nameENSt7__cxx1112basic_stringIcSt11char_traitsIcESaIcEEE
FNDA:7,_ZN14variables_list15pointer_by_nameENSt7__cxx1112basic_stringIcSt11char_traitsIcESaIcEEE
DA:7,1
DA:9,1
DA:10,1
DA:11,1
DA:12,1
DA:13,1
DA:15,5
DA:17,5
DA:20,7
DA:22,7
end_of_record
SF:/home/macsia/Project_cpp/21201_polukhin/res/out.hpp
FN:14,_ZN8mine_outlsINSt7__cxx1112basic_stringIcSt11char_traitsIcESaIcEEEEERS_RKT_
FNDA:20,_ZN8mine_outlsINSt7__cxx1112basic_stringIcSt11char_traitsIcESaIcEEEEERS_RKT_
FN:14,_ZN8mine_outlsIA2_cEERS_RKT_
FNDA:100059,_ZN8mine_outlsIA2_cEERS_RKT_
FN:14,_ZN8mine_outlsIiEERS_RKT_
FNDA:100039,_ZN8mine_outlsIiEERS_RKT_
FN:23,_ZN8mine_out10get_outputB5cxx11Ev
FNDA:400182,_ZN8mine_out10get_outputB5cxx11Ev
FN:28,_ZN8mine_out12flush_bufferB5cxx11Ev
FNDA:100032,_ZN8mine_out12flush_bufferB5cxx11Ev
DA:14,20
DA:19,20
DA:21,20
DA:14,100059
DA:19,100059
DA:21,100059
DA:14,100039
DA:19,100039
DA:21,100039
DA:23,400182
DA:25,400182
DA:26,400182
DA:28,100032
DA:30,100032
DA:31,100032
DA:32,100032
end_of_record
SF:/usr/include/c++/9/bits/basic_string.tcc
FN:206,_ZNSt7__cxx1112basic_stringIcSt11char_traitsIcESaIcEE12_M_constructIPcEEvT_S7_St20forward_iterator_tag
FNDA:700598,_ZNSt7__cxx1112basic_stringIcSt11char_traitsIcESaIcEE12_M_constructIPcEEvT_S7_St20forward_iterator_tag
FN:206,_ZNSt7__cxx1112basic_stringIcSt11char_traitsIcESaIcEE12_M_constructIPKcEEvT_S8_St20forward_iterator_tag
FNDA:0,_ZNSt7__cxx1112basic_stringIcSt11char_traitsIcESaIcEE12_M_constructIPKcEEvT_S8_St20forward_iterator_tag
FN:1158,_ZStplIcSt11char_traitsIcESaIcEENSt7__cxx1112basic_stringIT_T0_T1_EEPKS5_RKS8_
FNDA:12,_ZStplIcSt11char_traitsIcESaIcEENSt7__cxx1112basic_stringIT_T0_T1_EEPKS5_RKS8_
DA:206,700598
DA:211,700598
DA:212,0
DA:215,700598
DA:217,700598
DA:219,10
DA:220,10
DA:225,700598
DA:226,0
DA:228,0
DA:229,0
DA:232,700598
DA:233,700598
DA:206,0
DA:211,0
DA:212,0
DA:215,0
DA:217,0
DA:219,0
DA:220,0
DA:225,0
DA:226,0
DA:228,0
DA:229,0
DA:232,0
DA:233,0
DA:1158,12
DA:1164,12
DA:1165,12
DA:1166,12
DA:1167,12
DA:1168,12
DA:1169,12
end_of_record
SF:/usr/include/c++/9/ext/alloc_traits.h
FN:97,_ZN9__gnu_cxx14__alloc_traitsISaIcEcE17_S_select_on_copyERKS1_
FNDA:0,_ZN9__gnu_cxx14__alloc_traitsISaIcEcE17_S_select_on_copyERKS1_
DA:97,0
DA:98,0
end_of_record
SF:/usr/include/c++/9/bits/stl_pair.h
FN:304,_ZNSt4pairIKNSt7__cxx1112basic_stringIcSt11char_traitsIcESaIcEEExEC2EOS7_
FNDA:1,_ZNSt4pairIKNSt7__cxx1112basic_stringIcSt11char_traitsIcESaIcEEExEC2EOS7_
FN:304,_ZNSt4pairIKNSt7__cxx1112basic_stringIcSt11char_traitsIcESaIcEEES5_EC2EOS7_
FNDA:1,_ZNSt4pairIKNSt7__cxx1112basic_stringIcSt11char_traitsIcESaIcEEES5_EC2EOS7_
FN:304,_ZNSt4pairIKNSt7__cxx1112basic_stringIcSt11char_traitsIcESaIcEEESt10shared_ptrI16default_functionEEC2EOSA_
FNDA:21,_ZNSt4pairIKNSt7__cxx1112basic_stringIcSt11char_traitsIcESaIcEEESt10shared_ptrI16default_functionEEC2EOSA_
FN:311,_ZNSt4pairIPSt18_Rb_tree_node_baseS1_EC2IRS1_Lb1EEEOT_RKS1_
FNDA:0,_ZNSt4pairIPSt18_Rb_tree_node_baseS1_EC2IRS1_Lb1EEEOT_RKS1_
FN:341,_ZNSt4pairIPSt18_Rb_tree_node_baseS1_EC2IRPSt13_Rb_tree_nodeIS_IKNSt7__cxx1112basic_stringIcSt11char_traitsIcESaIcEEExEERS1_Lb1EEEOT_OT0_
FNDA:1,_ZNSt4pairIPSt18_Rb_tree_node_baseS1_EC2IRPSt13_Rb_tree_nodeIS_IKNSt7__cxx1112basic_stringIcSt11char_traitsIcESaIcEEExEERS1_Lb1EEEOT_OT0_
FN:341,_ZNSt4pairIPSt18_Rb_tree_node_baseS1_EC2IRPSt13_Rb_tree_nodeIS_IKNSt7__cxx1112basic_stringIcSt11char_traitsIcESaIcEEESA_EERS1_Lb1EEEOT_OT0_
FNDA:1,_ZNSt4pairIPSt18_Rb_tree_node_baseS1_EC2IRPSt13_Rb_tree_nodeIS_IKNSt7__cxx1112basic_stringIcSt11char_traitsIcESaIcEEESA_EERS1_Lb1EEEOT_OT0_
FN:341,_ZNSt4pairIPSt18_Rb_tree_node_baseS1_EC2IRPSt13_Rb_tree_nodeIS_IKNSt7__cxx1112basic_stringIcSt11char_traitsIcESaIcEEESt10shared_ptrI16default_functionEEERS1_Lb1EEEOT_OT0_
FNDA:21,_ZNSt4pairIPSt18_Rb_tree_node_baseS1_EC2IRPSt13_Rb_tree_nodeIS_IKNSt7__cxx1112basic_stringIcSt11char_traitsIcESaIcEEESt10shared_ptrI16default_functionEEERS1_Lb1EEEOT_OT0_
FN:341,_ZNSt4pairISt17_Rb_tree_iteratorIS_IKNSt7__cxx1112basic_stringIcSt11char_traitsIcESaIcEEExEEbEC2IS9_bLb1EEEOT_OT0_
FNDA:1,_ZNSt4pairISt17_Rb_tree_iteratorIS_IKNSt7__cxx1112basic_stringIcSt11char_traitsIcESaIcEEExEEbEC2IS9_bLb1EEEOT_OT0_
FN:341,_ZNSt4pairISt17_Rb_tree_iteratorIS_IKNSt7__cxx1112basic_stringIcSt11char_traitsIcESaIcEEES6_EEbEC2IS9_bLb1EEEOT_OT0_
FNDA:1,_ZNSt4pairISt17_Rb_tree_iteratorIS_IKNSt7__cxx1112basic_stringIcSt11char_traitsIcESaIcEEES6_EEbEC2IS9_bLb1EEEOT_OT0_
FN:341,_ZNSt4pairISt17_Rb_tree_iteratorIS_IKNSt7__cxx1112basic_stringIcSt11char_traitsIcESaIcEEESt10shared_ptrI16default_functionEEEbEC2ISC_bLb1EEEOT_OT0_
FNDA:21,_ZNSt4pairISt17_Rb_tree_iteratorIS_IKNSt7__cxx1112basic_stringIcSt11char_traitsIcESaIcEEESt10shared_ptrI16default_functionEEEbEC2ISC_bLb1EEEOT_OT0_
FN:341,_ZNSt4pairIKNSt7__cxx1112basic_stringIcSt11char_traitsIcESaIcEEExEC2IRS5_RxLb1EEEOT_OT0_
FNDA:1,_ZNSt4pairIKNSt7__cxx1112basic_stringIcSt11char_traitsIcESaIcEEExEC2IRS5_RxLb1EEEOT_OT0_
FN:341,_ZNSt4pairIKNSt7__cxx1112basic_stringIcSt11char_traitsIcESaIcEEES5_EC2IRS5_S9_Lb1EEEOT_OT0_
FNDA:1,_ZNSt4pairIKNSt7__cxx1112basic_stringIcSt11char_traitsIcESaIcEEES5_EC2IRS5_S9_Lb1EEEOT_OT0_
FN:341,_ZNSt4pairIKNSt7__cxx1112basic_stringIcSt11char_traitsIcESaIcEEESt10shared_ptrI16default_functionEEC2IS5_RS9_Lb1EEEOT_OT0_
FNDA:21,_ZNSt4pairIKNSt7__cxx1112basic_stringIcSt11char_traitsIcESaIcEEESt10shared_ptrI16default_functionEEC2IS5_RS9_Lb1EEEOT_OT0_
DA:304,1
DA:304,1
DA:304,21
DA:311,0
DA:312,0
DA:341,1
DA:342,1
DA:341,1
DA:342,1
DA:341,21
DA:342,21
DA:341,1
DA:342,1
DA:341,1
DA:342,1
DA:341,21
DA:342,21
DA:341,1
DA:342,1
DA:341,1
DA:342,1
DA:341,21
DA:342,21
end_of_record
SF:/usr/include/gtest/internal/gtest-internal.h
FN:442,_ZN7testing8internal15TestFactoryBaseD0Ev
FNDA:0,_ZN7testing8internal15TestFactoryBaseD0Ev
FN:442,_ZN7testing8internal15TestFactoryBaseD2Ev
FNDA:7,_ZN7testing8internal15TestFactoryBaseD2Ev
FN:449,_ZN7testing8internal15TestFactoryBaseC2Ev
FNDA:7,_ZN7testing8internal15TestFactoryBaseC2Ev
FN:460,_ZN7testing8internal15TestFactoryImplI25int_and_string_first_TestE10CreateTestEv
FNDA:1,_ZN7testing8internal15TestFactoryImplI25int_and_string_first_TestE10CreateTestEv
FN:460,_ZN7testing8internal15TestFactoryImplI24default_funcs_first_TestE10CreateTestEv
FNDA:1,_ZN7testing8internal15TestFactoryImplI24default_funcs_first_TestE10CreateTestEv
FN:460,_ZN7testing8internal15TestFactoryImplI13if_first_TestE10CreateTestEv
FNDA:1,_ZN7testing8internal15TestFactoryImplI13if_first_TestE10CreateTestEv
FN:460,_ZN7testing8internal15TestFactoryImplI15loop_first_TestE10CreateTestEv
FNDA:1,_ZN7testing8internal15TestFactoryImplI15loop_first_TestE10CreateTestEv
FN:460,_ZN7testing8internal15TestFactoryImplI21mine_funcs_first_TestE10CreateTestEv
FNDA:1,_ZN7testing8internal15TestFactoryImplI21mine_funcs_first_TestE10CreateTestEv
FN:460,_ZN7testing8internal15TestFactoryImplI15vars_first_TestE10CreateTestEv
FNDA:1,_ZN7testing8internal15TestFactoryImplI15vars_first_TestE10CreateTestEv
FN:460,_ZN7testing8internal15TestFactoryImplI14file_last_TestE10CreateTestEv
FNDA:1,_ZN7testing8internal15TestFactoryImplI14file_last_TestE10CreateTestEv
FN:481,_ZN7testing8internal12CodeLocationC2ERKNSt7__cxx1112basic_stringIcSt11char_traitsIcESaIcEEEi
FNDA:7,_ZN7testing8internal12CodeLocationC2ERKNSt7__cxx1112basic_stringIcSt11char_traitsIcESaIcEEEi
FN:494,_ZN7testing8internal19GetNotDefaultOrNullEPFvvES2_
FNDA:28,_ZN7testing8internal19GetNotDefaultOrNullEPFvvES2_
FN:509,_ZN7testing8internal16SuiteApiResolverINS_4TestEE19GetSetUpCaseOrSuiteEPKci
FNDA:7,_ZN7testing8internal16SuiteApiResolverINS_4TestEE19GetSetUpCaseOrSuiteEPKci
FN:524,_ZN7testing8internal16SuiteApiResolverINS_4TestEE22GetTearDownCaseOrSuiteEPKci
FNDA:7,_ZN7testing8internal16SuiteApiResolverINS_4TestEE22GetTearDownCaseOrSuiteEPKci
DA:442,0
DA:442,7
DA:449,7
DA:460,1
DA:460,1
DA:460,1
DA:460,1
DA:460,1
DA:460,1
DA:460,1
DA:481,7
DA:482,7
DA:494,28
DA:496,28
DA:509,7
DA:512,7
DA:514,7
DA:516,7
DA:519,0
DA:521,7
DA:524,7
DA:527,7
DA:529,7
DA:531,7
DA:534,0
DA:536,7
end_of_record
SF:/home/macsia/Project_cpp/21201_polukhin/Interpreter/default_functions.cpp
end_of_record
SF:/usr/include/c++/9/bits/stl_stack.h
FN:156,_ZNSt5stackIxSt5dequeIxSaIxEEEC2IS2_vEEv
FNDA:200064,_ZNSt5stackIxSt5dequeIxSaIxEEEC2IS2_vEEv
FN:193,_ZNKSt5stackIxSt5dequeIxSaIxEEE5emptyEv
FNDA:100040,_ZNKSt5stackIxSt5dequeIxSaIxEEE5emptyEv
FN:206,_ZNSt5stackIxSt5dequeIxSaIxEEE3topEv
FNDA:100102,_ZNSt5stackIxSt5dequeIxSaIxEEE3topEv
FN:238,_ZNSt5stackIxSt5dequeIxSaIxEEE4pushEOx
FNDA:100122,_ZNSt5stackIxSt5dequeIxSaIxEEE4pushEOx
FN:266,_ZNSt5stackIxSt5dequeIxSaIxEEE3popEv
FNDA:100094,_ZNSt5stackIxSt5dequeIxSaIxEEE3popEv
DA:156,200064
DA:157,200064
DA:193,100040
DA:194,100040
DA:206,100102
DA:209,100102
DA:238,100122
DA:239,100122
DA:266,100094
DA:269,100094
DA:270,100094
end_of_record
SF:/usr/include/c++/9/iostream
end_of_record
SF:/home/macsia/Project_cpp/21201_polukhin/res/log.hpp
FN:20,_ZN3LOGC2E7typelog
FNDA:200235,_ZN3LOGC2E7typelog
FN:27,_ZN3LOGD2Ev
FNDA:200235,_ZN3LOGD2Ev
FN:36,_ZN3LOGlsIA2_cEERS_RKT_
FNDA:100103,_ZN3LOGlsIA2_cEERS_RKT_
FN:36,_ZN3LOGlsINSt7__cxx1112basic_stringIcSt11char_traitsIcESaIcEEEEERS_RKT_
FNDA:400455,_ZN3LOGlsINSt7__cxx1112basic_stringIcSt11char_traitsIcESaIcEEEEERS_RKT_
FN:36,_ZN3LOGlsIA44_cEERS_RKT_
FNDA:8,_ZN3LOGlsIA44_cEERS_RKT_
FN:36,_ZN3LOGlsIbEERS_RKT_
FNDA:8,_ZN3LOGlsIbEERS_RKT_
FN:36,_ZN3LOGlsIA42_cEERS_RKT_
FNDA:1,_ZN3LOGlsIA42_cEERS_RKT_
FN:36,_ZN3LOGlsIA18_cEERS_RKT_
FNDA:100104,_ZN3LOGlsIA18_cEERS_RKT_
FN:36,_ZN3LOGlsIiEERS_RKT_
FNDA:12,_ZN3LOGlsIiEERS_RKT_
FN:36,_ZN3LOGlsIA5_cEERS_RKT_
FNDA:6,_ZN3LOGlsIA5_cEERS_RKT_
FN:36,_ZN3LOGlsIA17_cEERS_RKT_
FNDA:7,_ZN3LOGlsIA17_cEERS_RKT_
FN:36,_ZN3LOGlsIA23_cEERS_RKT_
FNDA:3,_ZN3LOGlsIA23_cEERS_RKT_
FN:36,_ZN3LOGlsIA26_cEERS_RKT_
FNDA:1,_ZN3LOGlsIA26_cEERS_RKT_
FN:36,_ZN3LOGlsIA34_cEERS_RKT_
FNDA:1,_ZN3LOGlsIA34_cEERS_RKT_
FN:36,_ZN3LOGlsIA25_cEERS_RKT_
FNDA:1,_ZN3LOGlsIA25_cEERS_RKT_
FN:36,_ZN3LOGlsIA9_cEERS_RKT_
FNDA:100099,_ZN3LOGlsIA9_cEERS_RKT_
FN:36,_ZN3LOGlsIA10_cEERS_RKT_
FNDA:100098,_ZN3LOGlsIA10_cEERS_RKT_
FN:36,_ZN3LOGlsIA15_cEERS_RKT_
FNDA:2,_ZN3LOGlsIA15_cEERS_RKT_
FN:36,_ZN3LOGlsIA20_cEERS_RKT_
FNDA:3,_ZN3LOGlsIA20_cEERS_RKT_
FN:36,_ZN3LOGlsIA12_cEERS_RKT_
FNDA:3,_ZN3LOGlsIA12_cEERS_RKT_
FN:36,_ZN3LOGlsIA13_cEERS_RKT_
FNDA:4,_ZN3LOGlsIA13_cEERS_RKT_
FN:36,_ZN3LOGlsIxEERS_RKT_
FNDA:4,_ZN3LOGlsIxEERS_RKT_
FN:49,_ZN3LOG8getLabelB5cxx11E7typelog
FNDA:200235,_ZN3LOG8getLabelB5cxx11E7typelog
DA:20,200235
DA:21,200235
DA:22,200235
DA:23,0
DA:24,200235
DA:25,200235
DA:26,200235
DA:27,200235
DA:28,200235
DA:29,200235
DA:31,5
DA:33,200235
DA:34,200235
DA:36,1
DA:38,1
DA:40,1
DA:41,1
DA:43,1
DA:36,400455
DA:38,400455
DA:40,7
DA:41,7
DA:43,400455
DA:36,8
DA:38,8
DA:40,0
DA:41,0
DA:43,8
DA:36,8
DA:38,8
DA:40,0
DA:41,0
DA:43,8
DA:36,1
DA:38,1
DA:40,1
DA:41,1
DA:43,1
DA:36,100104
DA:38,100104
DA:40,0
DA:41,0
DA:43,100104
DA:36,12
DA:38,12
DA:40,0
DA:41,0
DA:43,12
DA:36,6
DA:38,6
DA:40,0
DA:41,0
DA:43,6
DA:36,7
DA:38,7
DA:40,0
DA:41,0
DA:43,7
DA:36,100103
DA:38,100103
DA:40,0
DA:41,0
DA:43,100103
DA:36,3
DA:38,3
DA:40,0
DA:41,0
DA:43,3
DA:36,1
DA:38,1
DA:40,0
DA:41,0
DA:43,1
DA:36,1
DA:38,1
DA:40,1
DA:41,1
DA:43,1
DA:36,100099
DA:38,100099
DA:40,0
DA:41,0
DA:43,100099
DA:36,100098
DA:38,100098
DA:40,0
DA:41,0
DA:43,100098
DA:36,2
DA:38,2
DA:40,2
DA:41,2
DA:43,2
DA:36,3
DA:38,3
DA:40,2
DA:41,2
DA:43,3
DA:36,3
DA:38,3
DA:40,0
DA:41,0
DA:43,3
DA:36,4
DA:38,4
DA:40,0
DA:41,0
DA:43,4
DA:36,4
DA:38,4
DA:40,0
DA:41,0
DA:43,4
DA:49,200235
DA:51,200235
DA:52,200235
DA:54,0
DA:55,0
DA:56,0
DA:57,200230
DA:58,200230
DA:59,200230
DA:60,0
DA:61,0
DA:62,0
DA:63,5
DA:64,5
DA:65,5
DA:66,0
DA:67,0
DA:68,0
DA:70,200235
end_of_record
SF:/usr/include/c++/9/tuple
FN:113,_ZNSt10_Head_baseILm1ESt14default_deleteINSt7__cxx1118basic_stringstreamIcSt11char_traitsIcESaIcEEEELb1EE7_M_headERS8_
FNDA:0,_ZNSt10_Head_baseILm1ESt14default_deleteINSt7__cxx1118basic_stringstreamIcSt11char_traitsIcESaIcEEEELb1EE7_M_headERS8_
FN:113,_ZNSt10_Head_baseILm1ESt14default_deleteINSt7__cxx1112basic_stringIcSt11char_traitsIcESaIcEEEELb1EE7_M_headERS8_
FNDA:0,_ZNSt10_Head_baseILm1ESt14default_deleteINSt7__cxx1112basic_stringIcSt11char_traitsIcESaIcEEEELb1EE7_M_headERS8_
FN:160,_ZNSt10_Head_baseILm0EPNSt7__cxx1112basic_stringIcSt11char_traitsIcESaIcEEELb0EE7_M_headERS7_
FNDA:100023,_ZNSt10_Head_baseILm0EPNSt7__cxx1112basic_stringIcSt11char_traitsIcESaIcEEELb0EE7_M_headERS7_
FN:160,_ZNSt10_Head_baseILm0EPNSt7__cxx1118basic_stringstreamIcSt11char_traitsIcESaIcEEELb0EE7_M_headERS7_
FNDA:0,_ZNSt10_Head_baseILm0EPNSt7__cxx1118basic_stringstreamIcSt11char_traitsIcESaIcEEELb0EE7_M_headERS7_
FN:163,_ZNSt10_Head_baseILm0EPNSt7__cxx1112basic_stringIcSt11char_traitsIcESaIcEEELb0EE7_M_headERKS7_
FNDA:0,_ZNSt10_Head_baseILm0EPNSt7__cxx1112basic_stringIcSt11char_traitsIcESaIcEEELb0EE7_M_headERKS7_
FN:195,_ZNSt11_Tuple_implILm0EJPNSt7__cxx1112basic_stringIcSt11char_traitsIcESaIcEEESt14default_deleteIS5_EEE7_M_headERS9_
FNDA:100023,_ZNSt11_Tuple_implILm0EJPNSt7__cxx1112basic_stringIcSt11char_traitsIcESaIcEEESt14default_deleteIS5_EEE7_M_headERS9_
FN:195,_ZNSt11_Tuple_implILm0EJPNSt7__cxx1118basic_stringstreamIcSt11char_traitsIcESaIcEEESt14default_deleteIS5_EEE7_M_headERS9_
FNDA:0,_ZNSt11_Tuple_implILm0EJPNSt7__cxx1118basic_stringstreamIcSt11char_traitsIcESaIcEEESt14default_deleteIS5_EEE7_M_headERS9_
FN:198,_ZNSt11_Tuple_implILm0EJPNSt7__cxx1112basic_stringIcSt11char_traitsIcESaIcEEESt14default_deleteIS5_EEE7_M_headERKS9_
FNDA:0,_ZNSt11_Tuple_implILm0EJPNSt7__cxx1112basic_stringIcSt11char_traitsIcESaIcEEESt14default_deleteIS5_EEE7_M_headERKS9_
FN:334,_ZNSt11_Tuple_implILm1EJSt14default_deleteINSt7__cxx1112basic_stringIcSt11char_traitsIcESaIcEEEEEE7_M_headERS8_
FNDA:0,_ZNSt11_Tuple_implILm1EJSt14default_deleteINSt7__cxx1112basic_stringIcSt11char_traitsIcESaIcEEEEEE7_M_headERS8_
FN:334,_ZNSt11_Tuple_implILm1EJSt14default_deleteINSt7__cxx1118basic_stringstreamIcSt11char_traitsIcESaIcEEEEEE7_M_headERS8_
FNDA:0,_ZNSt11_Tuple_implILm1EJSt14default_deleteINSt7__cxx1118basic_stringstreamIcSt11char_traitsIcESaIcEEEEEE7_M_headERS8_
FN:1309,_ZSt12__get_helperILm1ESt14default_deleteINSt7__cxx1118basic_stringstreamIcSt11char_traitsIcESaIcEEEEJEERT0_RSt11_Tuple_implIXT_EJS8_DpT1_EE
FNDA:0,_ZSt12__get_helperILm1ESt14default_deleteINSt7__cxx1118basic_stringstreamIcSt11char_traitsIcESaIcEEEEJEERT0_RSt11_Tuple_implIXT_EJS8_DpT1_EE
FN:1309,_ZSt12__get_helperILm0EPNSt7__cxx1118basic_stringstreamIcSt11char_traitsIcESaIcEEEJSt14default_deleteIS5_EEERT0_RSt11_Tuple_implIXT_EJS9_DpT1_EE
FNDA:0,_ZSt12__get_helperILm0EPNSt7__cxx1118basic_stringstreamIcSt11char_traitsIcESaIcEEEJSt14default_deleteIS5_EEERT0_RSt11_Tuple_implIXT_EJS9_DpT1_EE
FN:1309,_ZSt12__get_helperILm0EPNSt7__cxx1112basic_stringIcSt11char_traitsIcESaIcEEEJSt14default_deleteIS5_EEERT0_RSt11_Tuple_implIXT_EJS9_DpT1_EE
FNDA:100023,_ZSt12__get_helperILm0EPNSt7__cxx1112basic_stringIcSt11char_traitsIcESaIcEEEJSt14default_deleteIS5_EEERT0_RSt11_Tuple_implIXT_EJS9_DpT1_EE
FN:1309,_ZSt12__get_helperILm1ESt14default_deleteINSt7__cxx1112basic_stringIcSt11char_traitsIcESaIcEEEEJEERT0_RSt11_Tuple_implIXT_EJS8_DpT1_EE
FNDA:0,_ZSt12__get_helperILm1ESt14default_deleteINSt7__cxx1112basic_stringIcSt11char_traitsIcESaIcEEEEJEERT0_RSt11_Tuple_implIXT_EJS8_DpT1_EE
FN:1314,_ZSt12__get_helperILm0EPNSt7__cxx1112basic_stringIcSt11char_traitsIcESaIcEEEJSt14default_deleteIS5_EEERKT0_RKSt11_Tuple_implIXT_EJS9_DpT1_EE
FNDA:0,_ZSt12__get_helperILm0EPNSt7__cxx1112basic_stringIcSt11char_traitsIcESaIcEEEJSt14default_deleteIS5_EEERKT0_RKSt11_Tuple_implIXT_EJS9_DpT1_EE
FN:1320,_ZSt3getILm1EJPNSt7__cxx1112basic_stringIcSt11char_traitsIcESaIcEEESt14default_deleteIS5_EEERNSt13tuple_elementIXT_ESt5tupleIJDpT0_EEE4typeERSD_
FNDA:0,_ZSt3getILm1EJPNSt7__cxx1112basic_stringIcSt11char_traitsIcESaIcEEESt14default_deleteIS5_EEERNSt13tuple_elementIXT_ESt5tupleIJDpT0_EEE4typeERSD_
FN:1320,_ZSt3getILm1EJPNSt7__cxx1118basic_stringstreamIcSt11char_traitsIcESaIcEEESt14default_deleteIS5_EEERNSt13tuple_elementIXT_ESt5tupleIJDpT0_EEE4typeERSD_
FNDA:0,_ZSt3getILm1EJPNSt7__cxx1118basic_stringstreamIcSt11char_traitsIcESaIcEEESt14default_deleteIS5_EEERNSt13tuple_elementIXT_ESt5tupleIJDpT0_EEE4typeERSD_
FN:1320,_ZSt3getILm0EJPNSt7__cxx1112basic_stringIcSt11char_traitsIcESaIcEEESt14default_deleteIS5_EEERNSt13tuple_elementIXT_ESt5tupleIJDpT0_EEE4typeERSD_
FNDA:100023,_ZSt3getILm0EJPNSt7__cxx1112basic_stringIcSt11char_traitsIcESaIcEEESt14default_deleteIS5_EEERNSt13tuple_elementIXT_ESt5tupleIJDpT0_EEE4typeERSD_
FN:1320,_ZSt3getILm0EJPNSt7__cxx1118basic_stringstreamIcSt11char_traitsIcESaIcEEESt14default_deleteIS5_EEERNSt13tuple_elementIXT_ESt5tupleIJDpT0_EEE4typeERSD_
FNDA:0,_ZSt3getILm0EJPNSt7__cxx1118basic_stringstreamIcSt11char_traitsIcESaIcEEESt14default_deleteIS5_EEERNSt13tuple_elementIXT_ESt5tupleIJDpT0_EEE4typeERSD_
FN:1326,_ZSt3getILm0EJPNSt7__cxx1112basic_stringIcSt11char_traitsIcESaIcEEESt14default_deleteIS5_EEERKNSt13tuple_elementIXT_ESt5tupleIJDpT0_EEE4typeERKSD_
FNDA:0,_ZSt3getILm0EJPNSt7__cxx1112basic_stringIcSt11char_traitsIcESaIcEEESt14default_deleteIS5_EEERKNSt13tuple_elementIXT_ESt5tupleIJDpT0_EEE4typeERKSD_
DA:113,0
DA:113,0
DA:160,100023
DA:160,0
DA:163,0
DA:195,100023
DA:195,0
DA:198,0
DA:334,0
DA:334,0
DA:1309,0
DA:1310,0
DA:1309,0
DA:1310,0
DA:1309,100023
DA:1310,100023
DA:1309,0
DA:1310,0
DA:1314,0
DA:1315,0
DA:1320,0
DA:1321,0
DA:1320,0
DA:1321,0
DA:1320,100023
DA:1321,100023
DA:1320,0
DA:1321,0
DA:1326,0
DA:1327,0
end_of_record
SF:/usr/include/c++/9/bits/unique_ptr.h
FN:75,_ZNKSt14default_deleteINSt7__cxx1112basic_stringIcSt11char_traitsIcESaIcEEEEclEPS5_
FNDA:0,_ZNKSt14default_deleteINSt7__cxx1112basic_stringIcSt11char_traitsIcESaIcEEEEclEPS5_
FN:75,_ZNKSt14default_deleteINSt7__cxx1118basic_stringstreamIcSt11char_traitsIcESaIcEEEEclEPS5_
FNDA:0,_ZNKSt14default_deleteINSt7__cxx1118basic_stringstreamIcSt11char_traitsIcESaIcEEEEclEPS5_
FN:153,_ZNSt15__uniq_ptr_implINSt7__cxx1112basic_stringIcSt11char_traitsIcESaIcEEESt14default_deleteIS5_EE6_M_ptrEv
FNDA:100023,_ZNSt15__uniq_ptr_implINSt7__cxx1112basic_stringIcSt11char_traitsIcESaIcEEESt14default_deleteIS5_EE6_M_ptrEv
FN:153,_ZNSt15__uniq_ptr_implINSt7__cxx1118basic_stringstreamIcSt11char_traitsIcESaIcEEESt14default_deleteIS5_EE6_M_ptrEv
FNDA:0,_ZNSt15__uniq_ptr_implINSt7__cxx1118basic_stringstreamIcSt11char_traitsIcESaIcEEESt14default_deleteIS5_EE6_M_ptrEv
FN:154,_ZNKSt15__uniq_ptr_implINSt7__cxx1112basic_stringIcSt11char_traitsIcESaIcEEESt14default_deleteIS5_EE6_M_ptrEv
FNDA:0,_ZNKSt15__uniq_ptr_implINSt7__cxx1112basic_stringIcSt11char_traitsIcESaIcEEESt14default_deleteIS5_EE6_M_ptrEv
FN:155,_ZNSt15__uniq_ptr_implINSt7__cxx1112basic_stringIcSt11char_traitsIcESaIcEEESt14default_deleteIS5_EE10_M_deleterEv
FNDA:0,_ZNSt15__uniq_ptr_implINSt7__cxx1112basic_stringIcSt11char_traitsIcESaIcEEESt14default_deleteIS5_EE10_M_deleterEv
FN:155,_ZNSt15__uniq_ptr_implINSt7__cxx1118basic_stringstreamIcSt11char_traitsIcESaIcEEESt14default_deleteIS5_EE10_M_deleterEv
FNDA:0,_ZNSt15__uniq_ptr_implINSt7__cxx1118basic_stringstreamIcSt11char_traitsIcESaIcEEESt14default_deleteIS5_EE10_M_deleterEv
FN:286,_ZNSt10unique_ptrINSt7__cxx1112basic_stringIcSt11char_traitsIcESaIcEEESt14default_deleteIS5_EED2Ev
FNDA:100023,_ZNSt10unique_ptrINSt7__cxx1112basic_stringIcSt11char_traitsIcESaIcEEESt14default_deleteIS5_EED2Ev
FN:286,_ZNSt10unique_ptrINSt7__cxx1118basic_stringstreamIcSt11char_traitsIcESaIcEEESt14default_deleteIS5_EED2Ev
FNDA:0,_ZNSt10unique_ptrINSt7__cxx1118basic_stringstreamIcSt11char_traitsIcESaIcEEESt14default_deleteIS5_EED2Ev
FN:352,_ZNKSt10unique_ptrINSt7__cxx1112basic_stringIcSt11char_traitsIcESaIcEEESt14default_deleteIS5_EEptEv
FNDA:0,_ZNKSt10unique_ptrINSt7__cxx1112basic_stringIcSt11char_traitsIcESaIcEEESt14default_deleteIS5_EEptEv
FN:360,_ZNKSt10unique_ptrINSt7__cxx1112basic_stringIcSt11char_traitsIcESaIcEEESt14default_deleteIS5_EE3getEv
FNDA:0,_ZNKSt10unique_ptrINSt7__cxx1112basic_stringIcSt11char_traitsIcESaIcEEESt14default_deleteIS5_EE3getEv
FN:365,_ZNSt10unique_ptrINSt7__cxx1112basic_stringIcSt11char_traitsIcESaIcEEESt14default_deleteIS5_EE11get_deleterEv
FNDA:0,_ZNSt10unique_ptrINSt7__cxx1112basic_stringIcSt11char_traitsIcESaIcEEESt14default_deleteIS5_EE11get_deleterEv
FN:365,_ZNSt10unique_ptrINSt7__cxx1118basic_stringstreamIcSt11char_traitsIcESaIcEEESt14default_deleteIS5_EE11get_deleterEv
FNDA:0,_ZNSt10unique_ptrINSt7__cxx1118basic_stringstreamIcSt11char_traitsIcESaIcEEESt14default_deleteIS5_EE11get_deleterEv
DA:75,0
DA:81,0
DA:82,0
DA:75,0
DA:81,0
DA:82,0
DA:153,100023
DA:153,0
DA:154,0
DA:155,0
DA:155,0
DA:286,100023
DA:290,100023
DA:291,100023
DA:292,0
DA:293,100023
DA:294,100023
DA:286,0
DA:290,0
DA:291,0
DA:292,0
DA:293,0
DA:294,0
DA:352,0
DA:355,0
DA:360,0
DA:361,0
DA:365,0
DA:366,0
DA:365,0
DA:366,0
end_of_record
SF:/usr/include/c++/9/bits/stl_algobase.h
FN:198,_ZSt3minImERKT_S2_S2_
FNDA:1,_ZSt3minImERKT_S2_S2_
FN:222,_ZSt3maxImERKT_S2_S2_
FNDA:200064,_ZSt3maxImERKT_S2_S2_
FN:280,_ZSt12__niter_baseIPPxET_S2_
FNDA:0,_ZSt12__niter_baseIPPxET_S2_
FN:295,_ZSt12__niter_wrapIPPxET_RKS2_S2_
FNDA:0,_ZSt12__niter_wrapIPPxET_RKS2_S2_
FN:375,_ZNSt11__copy_moveILb0ELb1ESt26random_access_iterator_tagE8__copy_mIPxEEPT_PKS4_S7_S5_
FNDA:0,_ZNSt11__copy_moveILb0ELb1ESt26random_access_iterator_tagE8__copy_mIPxEEPT_PKS4_S7_S5_
FN:393,_ZSt13__copy_move_aILb0EPPxS1_ET1_T0_S3_S2_
FNDA:0,_ZSt13__copy_move_aILb0EPPxS1_ET1_T0_S3_S2_
FN:438,_ZSt14__copy_move_a2ILb0EPPxS1_ET1_T0_S3_S2_
FNDA:0,_ZSt14__copy_move_a2ILb0EPPxS1_ET1_T0_S3_S2_
FN:465,_ZSt4copyIPPxS1_ET0_T_S3_S2_
FNDA:0,_ZSt4copyIPPxS1_ET0_T_S3_S2_
FN:577,_ZNSt20__copy_move_backwardILb0ELb1ESt26random_access_iterator_tagE13__copy_move_bIPxEEPT_PKS4_S7_S5_
FNDA:0,_ZNSt20__copy_move_backwardILb0ELb1ESt26random_access_iterator_tagE13__copy_move_bIPxEEPT_PKS4_S7_S5_
FN:595,_ZSt22__copy_move_backward_aILb0EPPxS1_ET1_T0_S3_S2_
FNDA:0,_ZSt22__copy_move_backward_aILb0EPPxS1_ET1_T0_S3_S2_
FN:613,_ZSt23__copy_move_backward_a2ILb0EPPxS1_ET1_T0_S3_S2_
FNDA:0,_ZSt23__copy_move_backward_a2ILb0EPPxS1_ET1_T0_S3_S2_
FN:641,_ZSt13copy_backwardIPPxS1_ET0_T_S3_S2_
FNDA:0,_ZSt13copy_backwardIPPxS1_ET0_T_S3_S2_
DA:198,1
DA:203,1
DA:204,0
DA:205,1
DA:222,200064
DA:227,200064
DA:228,0
DA:229,200064
DA:280,0
DA:282,0
DA:295,0
DA:296,0
DA:375,0
DA:384,0
DA:385,0
DA:386,0
DA:387,0
DA:393,0
DA:398,0
DA:404,0
DA:438,0
DA:440,0
DA:443,0
DA:465,0
DA:474,0
DA:577,0
DA:586,0
DA:587,0
DA:588,0
DA:589,0
DA:595,0
DA:600,0
DA:606,0
DA:608,0
DA:613,0
DA:615,0
DA:618,0
DA:641,0
DA:652,0
end_of_record
SF:/usr/include/gtest/gtest.h
FN:312,_ZNK7testing15AssertionResultcvbEv
FNDA:100023,_ZNK7testing15AssertionResultcvbEv
FN:321,_ZNK7testing15AssertionResult7messageEv
FNDA:0,_ZNK7testing15AssertionResult7messageEv
FN:325,_ZNK7testing15AssertionResult15failure_messageEv
FNDA:0,_ZNK7testing15AssertionResult15failure_messageEv
FN:417,_ZN7testing4Test14SetUpTestSuiteEv
FNDA:0,_ZN7testing4Test14SetUpTestSuiteEv
FN:427,_ZN7testing4Test17TearDownTestSuiteEv
FNDA:0,_ZN7testing4Test17TearDownTestSuiteEv
FN:431,_ZN7testing4Test16TearDownTestCaseEv
FNDA:0,_ZN7testing4Test16TearDownTestCaseEv
FN:432,_ZN7testing4Test13SetUpTestCaseEv
FNDA:0,_ZN7testing4Test13SetUpTestCaseEv
FN:513,_ZN7testing4Test5SetupEv
FNDA:0,_ZN7testing4Test5SetupEv
FN:1504,_ZN7testing8internal18CmpHelperEQFailureINSt7__cxx1112basic_stringIcSt11char_traitsIcESaIcEEES7_EENS_15AssertionResultEPKcSA_RKT_RKT0_
FNDA:0,_ZN7testing8internal18CmpHelperEQFailureINSt7__cxx1112basic_stringIcSt11char_traitsIcESaIcEEES7_EENS_15AssertionResultEPKcSA_RKT_RKT0_
FN:1523,_ZN7testing8internal11CmpHelperEQINSt7__cxx1112basic_stringIcSt11char_traitsIcESaIcEEES7_EENS_15AssertionResultEPKcSA_RKT_RKT0_
FNDA:100023,_ZN7testing8internal11CmpHelperEQINSt7__cxx1112basic_stringIcSt11char_traitsIcESaIcEEES7_EENS_15AssertionResultEPKcSA_RKT_RKT0_
FN:1551,_ZN7testing8internal8EqHelper7CompareINSt7__cxx1112basic_stringIcSt11char_traitsIcESaIcEEES8_LPv0EEENS_15AssertionResultEPKcSC_RKT_RKT0_
FNDA:100023,_ZN7testing8internal8EqHelper7CompareINSt7__cxx1112basic_stringIcSt11char_traitsIcESaIcEEES8_LPv0EEENS_15AssertionResultEPKcSC_RKT_RKT0_
FN:2472,_Z13RUN_ALL_TESTSv
FNDA:1,_Z13RUN_ALL_TESTSv
DA:312,100023
DA:321,0
DA:322,0
DA:325,0
DA:417,0
DA:427,0
DA:431,0
DA:432,0
DA:513,0
DA:1504,0
DA:1511,0
DA:1523,100023
DA:1527,100023
DA:1528,100023
DA:1531,0
DA:1551,100023
DA:1554,100023
DA:2472,1
DA:2473,1
end_of_record
SF:/home/macsia/Project_cpp/21201_polukhin/Interpreter/Interpreter.cpp
FN:5,_ZN11Interpreter12process_fileERSt14basic_ifstreamIcSt11char_traitsIcEE
FNDA:1,_ZN11Interpreter12process_fileERSt14basic_ifstreamIcSt11char_traitsIcEE
FN:15,_ZN11Interpreter12process_textERNSt7__cxx1118basic_stringstreamIcSt11char_traitsIcESaIcEEE
FNDA:200125,_ZN11Interpreter12process_textERNSt7__cxx1118basic_stringstreamIcSt11char_traitsIcESaIcEEE
FN:22,_ZN11Interpreter10categorizeENSt7__cxx1112basic_stringIcSt11char_traitsIcESaIcEEE
FNDA:200205,_ZN11Interpreter10categorizeENSt7__cxx1112basic_stringIcSt11char_traitsIcESaIcEEE
FN:48,_ZN11Interpreter12process_wordENSt7__cxx1112basic_stringIcSt11char_traitsIcESaIcEEERNS0_18basic_stringstreamIcS3_S4_EE
FNDA:200205,_ZN11Interpreter12process_wordENSt7__cxx1112basic_stringIcSt11char_traitsIcESaIcEEERNS0_18basic_stringstreamIcS3_S4_EE
FN:78,_ZN11Interpreter12use_functionENSt7__cxx1112basic_stringIcSt11char_traitsIcESaIcEEERNS0_18basic_stringstreamIcS3_S4_EE
FNDA:100098,_ZN11Interpreter12use_functionENSt7__cxx1112basic_stringIcSt11char_traitsIcESaIcEEERNS0_18basic_stringstreamIcS3_S4_EE
FN:86,_ZN11Interpreter17add_mine_functionERNSt7__cxx1118basic_stringstreamIcSt11char_traitsIcESaIcEEE
FNDA:1,_ZN11Interpreter17add_mine_functionERNSt7__cxx1118basic_stringstreamIcSt11char_traitsIcESaIcEEE
FN:96,_ZN11Interpreter17use_mine_functionENSt7__cxx1112basic_stringIcSt11char_traitsIcESaIcEEE
FNDA:2,_ZN11Interpreter17use_mine_functionENSt7__cxx1112basic_stringIcSt11char_traitsIcESaIcEEE
FN:104,_ZN11Interpreter12add_variableERNSt7__cxx1118basic_stringstreamIcSt11char_traitsIcESaIcEEE
FNDA:1,_ZN11Interpreter12add_variableERNSt7__cxx1118basic_stringstreamIcSt11char_traitsIcESaIcEEE
FN:112,_ZN11Interpreter12use_variableENSt7__cxx1112basic_stringIcSt11char_traitsIcESaIcEEE
FNDA:3,_ZN11Interpreter12use_variableENSt7__cxx1112basic_stringIcSt11char_traitsIcESaIcEEE
DA:5,1
DA:7,1
DA:8,2
DA:9,2
DA:10,2
DA:11,1
DA:12,1
DA:13,1
DA:15,200125
DA:17,400250
DA:18,400321
DA:19,200214
DA:20,200116
DA:22,200205
DA:24,200205
DA:25,1
DA:26,1200220
DA:28,1200220
DA:29,100000
DA:30,1100220
DA:31,100107
DA:32,1000110
DA:33,100098
DA:35,100107
DA:36,1
DA:37,100106
DA:38,1
DA:39,100105
DA:40,100098
DA:41,7
DA:42,2
DA:43,5
DA:44,3
DA:45,2
DA:48,200205
DA:50,200205
DA:52,100098
DA:53,100098
DA:54,100098
DA:55,100098
DA:56,100098
DA:57,100105
DA:58,100091
DA:59,1
DA:60,1
DA:61,1
DA:62,3
DA:63,3
DA:64,3
DA:65,1
DA:66,1
DA:67,1
DA:68,2
DA:69,2
DA:70,2
DA:71,2
DA:72,2
DA:73,2
DA:76,200196
DA:78,100098
DA:80,100098
DA:81,200196
DA:82,100098
DA:83,100091
DA:84,100091
DA:86,1
DA:88,2
DA:89,1
DA:90,1
DA:91,1
DA:92,1
DA:93,1
DA:94,1
DA:96,2
DA:98,4
DA:99,2
DA:100,2
DA:101,2
DA:102,2
DA:104,1
DA:106,1
DA:107,1
DA:108,1
DA:109,1
DA:110,1
DA:112,3
DA:114,3
DA:115,3
DA:116,3
end_of_record
