TN:
SF:/usr/include/c++/9/tuple
FN:76,_ZNSt10_Head_baseILm1ESt14default_deleteINSt7__cxx1112basic_stringIcSt11char_traitsIcESaIcEEEELb1EEC2Ev
FNDA:95105,_ZNSt10_Head_baseILm1ESt14default_deleteINSt7__cxx1112basic_stringIcSt11char_traitsIcESaIcEEEELb1EEC2Ev
FN:113,_ZNSt10_Head_baseILm1ESt14default_deleteINSt7__cxx1118basic_stringstreamIcSt11char_traitsIcESaIcEEEELb1EE7_M_headERS8_
FNDA:0,_ZNSt10_Head_baseILm1ESt14default_deleteINSt7__cxx1118basic_stringstreamIcSt11char_traitsIcESaIcEEEELb1EE7_M_headERS8_
FN:113,_ZNSt10_Head_baseILm1ESt14default_deleteINSt7__cxx1112basic_stringIcSt11char_traitsIcESaIcEEEELb1EE7_M_headERS8_
FNDA:0,_ZNSt10_Head_baseILm1ESt14default_deleteINSt7__cxx1112basic_stringIcSt11char_traitsIcESaIcEEEELb1EE7_M_headERS8_
FN:122,_ZNSt10_Head_baseILm0EPNSt7__cxx1112basic_stringIcSt11char_traitsIcESaIcEEELb0EEC2Ev
FNDA:95105,_ZNSt10_Head_baseILm0EPNSt7__cxx1112basic_stringIcSt11char_traitsIcESaIcEEELb0EEC2Ev
FN:160,_ZNSt10_Head_baseILm0EPNSt7__cxx1112basic_stringIcSt11char_traitsIcESaIcEEELb0EE7_M_headERS7_
FNDA:145117,_ZNSt10_Head_baseILm0EPNSt7__cxx1112basic_stringIcSt11char_traitsIcESaIcEEELb0EE7_M_headERS7_
FN:160,_ZNSt10_Head_baseILm0EPNSt7__cxx1118basic_stringstreamIcSt11char_traitsIcESaIcEEELb0EE7_M_headERS7_
FNDA:0,_ZNSt10_Head_baseILm0EPNSt7__cxx1118basic_stringstreamIcSt11char_traitsIcESaIcEEELb0EE7_M_headERS7_
FN:163,_ZNSt10_Head_baseILm0EPNSt7__cxx1112basic_stringIcSt11char_traitsIcESaIcEEELb0EE7_M_headERKS7_
FNDA:0,_ZNSt10_Head_baseILm0EPNSt7__cxx1112basic_stringIcSt11char_traitsIcESaIcEEELb0EE7_M_headERKS7_
FN:195,_ZNSt11_Tuple_implILm0EJPNSt7__cxx1118basic_stringstreamIcSt11char_traitsIcESaIcEEESt14default_deleteIS5_EEE7_M_headERS9_
FNDA:0,_ZNSt11_Tuple_implILm0EJPNSt7__cxx1118basic_stringstreamIcSt11char_traitsIcESaIcEEESt14default_deleteIS5_EEE7_M_headERS9_
FN:195,_ZNSt11_Tuple_implILm0EJPNSt7__cxx1112basic_stringIcSt11char_traitsIcESaIcEEESt14default_deleteIS5_EEE7_M_headERS9_
FNDA:145117,_ZNSt11_Tuple_implILm0EJPNSt7__cxx1112basic_stringIcSt11char_traitsIcESaIcEEESt14default_deleteIS5_EEE7_M_headERS9_
FN:198,_ZNSt11_Tuple_implILm0EJPNSt7__cxx1112basic_stringIcSt11char_traitsIcESaIcEEESt14default_deleteIS5_EEE7_M_headERKS9_
FNDA:0,_ZNSt11_Tuple_implILm0EJPNSt7__cxx1112basic_stringIcSt11char_traitsIcESaIcEEESt14default_deleteIS5_EEE7_M_headERKS9_
FN:206,_ZNSt11_Tuple_implILm0EJPNSt7__cxx1112basic_stringIcSt11char_traitsIcESaIcEEESt14default_deleteIS5_EEEC2Ev
FNDA:95105,_ZNSt11_Tuple_implILm0EJPNSt7__cxx1112basic_stringIcSt11char_traitsIcESaIcEEESt14default_deleteIS5_EEEC2Ev
FN:334,_ZNSt11_Tuple_implILm1EJSt14default_deleteINSt7__cxx1118basic_stringstreamIcSt11char_traitsIcESaIcEEEEEE7_M_headERS8_
FNDA:0,_ZNSt11_Tuple_implILm1EJSt14default_deleteINSt7__cxx1118basic_stringstreamIcSt11char_traitsIcESaIcEEEEEE7_M_headERS8_
FN:334,_ZNSt11_Tuple_implILm1EJSt14default_deleteINSt7__cxx1112basic_stringIcSt11char_traitsIcESaIcEEEEEE7_M_headERS8_
FNDA:0,_ZNSt11_Tuple_implILm1EJSt14default_deleteINSt7__cxx1112basic_stringIcSt11char_traitsIcESaIcEEEEEE7_M_headERS8_
FN:339,_ZNSt11_Tuple_implILm1EJSt14default_deleteINSt7__cxx1112basic_stringIcSt11char_traitsIcESaIcEEEEEEC2Ev
FNDA:95105,_ZNSt11_Tuple_implILm1EJSt14default_deleteINSt7__cxx1112basic_stringIcSt11char_traitsIcESaIcEEEEEEC2Ev
FN:918,_ZNSt5tupleIJPNSt7__cxx1112basic_stringIcSt11char_traitsIcESaIcEEESt14default_deleteIS5_EEEC2IS6_S8_Lb1EEEv
FNDA:95105,_ZNSt5tupleIJPNSt7__cxx1112basic_stringIcSt11char_traitsIcESaIcEEESt14default_deleteIS5_EEEC2IS6_S8_Lb1EEEv
FN:1309,_ZSt12__get_helperILm1ESt14default_deleteINSt7__cxx1112basic_stringIcSt11char_traitsIcESaIcEEEEJEERT0_RSt11_Tuple_implIXT_EJS8_DpT1_EE
FNDA:0,_ZSt12__get_helperILm1ESt14default_deleteINSt7__cxx1112basic_stringIcSt11char_traitsIcESaIcEEEEJEERT0_RSt11_Tuple_implIXT_EJS8_DpT1_EE
FN:1309,_ZSt12__get_helperILm1ESt14default_deleteINSt7__cxx1118basic_stringstreamIcSt11char_traitsIcESaIcEEEEJEERT0_RSt11_Tuple_implIXT_EJS8_DpT1_EE
FNDA:0,_ZSt12__get_helperILm1ESt14default_deleteINSt7__cxx1118basic_stringstreamIcSt11char_traitsIcESaIcEEEEJEERT0_RSt11_Tuple_implIXT_EJS8_DpT1_EE
FN:1309,_ZSt12__get_helperILm0EPNSt7__cxx1112basic_stringIcSt11char_traitsIcESaIcEEEJSt14default_deleteIS5_EEERT0_RSt11_Tuple_implIXT_EJS9_DpT1_EE
FNDA:145117,_ZSt12__get_helperILm0EPNSt7__cxx1112basic_stringIcSt11char_traitsIcESaIcEEEJSt14default_deleteIS5_EEERT0_RSt11_Tuple_implIXT_EJS9_DpT1_EE
FN:1309,_ZSt12__get_helperILm0EPNSt7__cxx1118basic_stringstreamIcSt11char_traitsIcESaIcEEEJSt14default_deleteIS5_EEERT0_RSt11_Tuple_implIXT_EJS9_DpT1_EE
FNDA:0,_ZSt12__get_helperILm0EPNSt7__cxx1118basic_stringstreamIcSt11char_traitsIcESaIcEEEJSt14default_deleteIS5_EEERT0_RSt11_Tuple_implIXT_EJS9_DpT1_EE
FN:1314,_ZSt12__get_helperILm0EPNSt7__cxx1112basic_stringIcSt11char_traitsIcESaIcEEEJSt14default_deleteIS5_EEERKT0_RKSt11_Tuple_implIXT_EJS9_DpT1_EE
FNDA:0,_ZSt12__get_helperILm0EPNSt7__cxx1112basic_stringIcSt11char_traitsIcESaIcEEEJSt14default_deleteIS5_EEERKT0_RKSt11_Tuple_implIXT_EJS9_DpT1_EE
FN:1320,_ZSt3getILm1EJPNSt7__cxx1112basic_stringIcSt11char_traitsIcESaIcEEESt14default_deleteIS5_EEERNSt13tuple_elementIXT_ESt5tupleIJDpT0_EEE4typeERSD_
FNDA:0,_ZSt3getILm1EJPNSt7__cxx1112basic_stringIcSt11char_traitsIcESaIcEEESt14default_deleteIS5_EEERNSt13tuple_elementIXT_ESt5tupleIJDpT0_EEE4typeERSD_
FN:1320,_ZSt3getILm1EJPNSt7__cxx1118basic_stringstreamIcSt11char_traitsIcESaIcEEESt14default_deleteIS5_EEERNSt13tuple_elementIXT_ESt5tupleIJDpT0_EEE4typeERSD_
FNDA:0,_ZSt3getILm1EJPNSt7__cxx1118basic_stringstreamIcSt11char_traitsIcESaIcEEESt14default_deleteIS5_EEERNSt13tuple_elementIXT_ESt5tupleIJDpT0_EEE4typeERSD_
FN:1320,_ZSt3getILm0EJPNSt7__cxx1112basic_stringIcSt11char_traitsIcESaIcEEESt14default_deleteIS5_EEERNSt13tuple_elementIXT_ESt5tupleIJDpT0_EEE4typeERSD_
FNDA:145117,_ZSt3getILm0EJPNSt7__cxx1112basic_stringIcSt11char_traitsIcESaIcEEESt14default_deleteIS5_EEERNSt13tuple_elementIXT_ESt5tupleIJDpT0_EEE4typeERSD_
FN:1320,_ZSt3getILm0EJPNSt7__cxx1118basic_stringstreamIcSt11char_traitsIcESaIcEEESt14default_deleteIS5_EEERNSt13tuple_elementIXT_ESt5tupleIJDpT0_EEE4typeERSD_
FNDA:0,_ZSt3getILm0EJPNSt7__cxx1118basic_stringstreamIcSt11char_traitsIcESaIcEEESt14default_deleteIS5_EEERNSt13tuple_elementIXT_ESt5tupleIJDpT0_EEE4typeERSD_
FN:1326,_ZSt3getILm0EJPNSt7__cxx1112basic_stringIcSt11char_traitsIcESaIcEEESt14default_deleteIS5_EEERKNSt13tuple_elementIXT_ESt5tupleIJDpT0_EEE4typeERKSD_
FNDA:0,_ZSt3getILm0EJPNSt7__cxx1112basic_stringIcSt11char_traitsIcESaIcEEESt14default_deleteIS5_EEERKNSt13tuple_elementIXT_ESt5tupleIJDpT0_EEE4typeERKSD_
DA:76,95105
DA:77,95105
DA:113,0
DA:113,0
DA:122,95105
DA:123,95105
DA:160,145117
DA:160,0
DA:163,0
DA:195,145117
DA:195,0
DA:198,0
DA:206,95105
DA:207,95105
DA:334,0
DA:334,0
DA:339,95105
DA:340,95105
DA:918,95105
DA:919,95105
DA:1309,0
DA:1310,0
DA:1309,0
DA:1310,0
DA:1309,145117
DA:1310,145117
DA:1309,0
DA:1310,0
DA:1314,0
DA:1315,0
DA:1320,0
DA:1321,0
DA:1320,0
DA:1321,0
DA:1320,145117
DA:1321,145117
DA:1320,0
DA:1321,0
DA:1326,0
DA:1327,0
end_of_record
SF:/usr/include/c++/9/bits/alloc_traits.h
FN:513,_ZNSt16allocator_traitsISaIcEE37select_on_container_copy_constructionERKS0_
FNDA:0,_ZNSt16allocator_traitsISaIcEE37select_on_container_copy_constructionERKS0_
DA:513,0
DA:514,0
end_of_record
SF:/home/macsia/Project_cpp/21201_polukhin/FlatMap/FlatMap.hpp
FN:10,_ZN7FlatMapI3keyiEC2Ev
FNDA:7,_ZN7FlatMapI3keyiEC2Ev
FN:11,_ZN7FlatMapI3keyiED2Ev
FNDA:15,_ZN7FlatMapI3keyiED2Ev
FN:13,_ZN7FlatMapI3keyiEC2ERKS1_
FNDA:5,_ZN7FlatMapI3keyiEC2ERKS1_
FN:15,_ZN7FlatMapI3keyiEC2EOS1_
FNDA:3,_ZN7FlatMapI3keyiEC2EOS1_
FN:19,_ZN7FlatMapI3keyiE4swapERS1_
FNDA:2,_ZN7FlatMapI3keyiE4swapERS1_
FN:25,_ZN7FlatMapI3keyiEaSERKS1_
FNDA:1,_ZN7FlatMapI3keyiEaSERKS1_
FN:31,_ZN7FlatMapI3keyiEaSEOS1_
FNDA:4,_ZN7FlatMapI3keyiEaSEOS1_
FN:37,_ZN7FlatMapI3keyiE5clearEv
FNDA:4,_ZN7FlatMapI3keyiE5clearEv
FN:41,_ZN7FlatMapI3keyiE5eraseERKS0_
FNDA:20090,_ZN7FlatMapI3keyiE5eraseERKS0_
FN:50,_ZN7FlatMapI3keyiE6insertERKS0_RKi
FNDA:71200,_ZN7FlatMapI3keyiE6insertERKS0_RKi
FN:58,_ZNK7FlatMapI3keyiE8containsERKS0_
FNDA:3810,_ZNK7FlatMapI3keyiE8containsERKS0_
FN:64,_ZN7FlatMapI3keyiEixERKS0_
FNDA:10003,_ZN7FlatMapI3keyiEixERKS0_
FN:72,_ZN7FlatMapI3keyiE2atERKS0_
FNDA:10002,_ZN7FlatMapI3keyiE2atERKS0_
FN:78,_ZNK7FlatMapI3keyiE2atERKS0_
FNDA:9999,_ZNK7FlatMapI3keyiE2atERKS0_
FN:84,_ZNK7FlatMapI3keyiE4sizeEv
FNDA:256387,_ZNK7FlatMapI3keyiE4sizeEv
FN:88,_ZNK7FlatMapI3keyiE5emptyEv
FNDA:200119,_ZNK7FlatMapI3keyiE5emptyEv
FN:92,_ZeqRK7FlatMapI3keyiES3_
FNDA:9,_ZeqRK7FlatMapI3keyiES3_
FN:96,_ZneRK7FlatMapI3keyiES3_
FNDA:2,_ZneRK7FlatMapI3keyiES3_
FN:102,_ZNK7FlatMapI3keyiE15find_pos_of_keyERKS0_
FNDA:125104,_ZNK7FlatMapI3keyiE15find_pos_of_keyERKS0_
DA:10,7
DA:11,15
DA:13,5
DA:15,3
DA:16,3
DA:17,3
DA:19,2
DA:20,4
DA:21,2
DA:22,2
DA:23,2
DA:25,1
DA:26,1
DA:27,1
DA:28,1
DA:31,4
DA:32,4
DA:33,4
DA:34,4
DA:37,4
DA:38,4
DA:39,4
DA:41,20090
DA:42,20090
DA:43,20090
DA:44,10001
DA:45,10001
DA:47,10089
DA:50,71200
DA:51,71200
DA:52,71200
DA:53,41202
DA:54,41202
DA:55,41202
DA:58,3810
DA:59,3810
DA:60,3810
DA:61,3810
DA:64,10003
DA:65,10003
DA:66,10003
DA:67,1
DA:69,10003
DA:72,10002
DA:73,10002
DA:74,10002
DA:75,10002
DA:78,9999
DA:79,9999
DA:80,9999
DA:81,9999
DA:84,256387
DA:85,256387
DA:88,200119
DA:89,200119
DA:92,9
DA:93,9
DA:96,2
DA:97,2
DA:102,125104
DA:103,125104
DA:104,125096
DA:105,1624020
DA:106,1498930
DA:108,1498930
DA:109,953972
DA:110,544956
DA:112,125096
end_of_record
SF:/usr/include/c++/9/bits/basic_string.tcc
FN:206,_ZNSt7__cxx1112basic_stringIcSt11char_traitsIcESaIcEE12_M_constructIPcEEvT_S7_St20forward_iterator_tag
FNDA:0,_ZNSt7__cxx1112basic_stringIcSt11char_traitsIcESaIcEE12_M_constructIPcEEvT_S7_St20forward_iterator_tag
FN:206,_ZNSt7__cxx1112basic_stringIcSt11char_traitsIcESaIcEE12_M_constructIPKcEEvT_S8_St20forward_iterator_tag
FNDA:0,_ZNSt7__cxx1112basic_stringIcSt11char_traitsIcESaIcEE12_M_constructIPKcEEvT_S8_St20forward_iterator_tag
DA:206,0
DA:211,0
DA:212,0
DA:215,0
DA:217,0
DA:219,0
DA:220,0
DA:225,0
DA:226,0
DA:228,0
DA:229,0
DA:232,0
DA:233,0
DA:206,0
DA:211,0
DA:212,0
DA:215,0
DA:217,0
DA:219,0
DA:220,0
DA:225,0
DA:226,0
DA:228,0
DA:229,0
DA:232,0
DA:233,0
end_of_record
SF:/usr/include/c++/9/bits/stl_iterator_base_funcs.h
FN:98,_ZSt10__distanceIPcENSt15iterator_traitsIT_E15difference_typeES2_S2_St26random_access_iterator_tag
FNDA:0,_ZSt10__distanceIPcENSt15iterator_traitsIT_E15difference_typeES2_S2_St26random_access_iterator_tag
FN:98,_ZSt10__distanceIPKcENSt15iterator_traitsIT_E15difference_typeES3_S3_St26random_access_iterator_tag
FNDA:0,_ZSt10__distanceIPKcENSt15iterator_traitsIT_E15difference_typeES3_S3_St26random_access_iterator_tag
FN:138,_ZSt8distanceIPcENSt15iterator_traitsIT_E15difference_typeES2_S2_
FNDA:0,_ZSt8distanceIPcENSt15iterator_traitsIT_E15difference_typeES2_S2_
FN:138,_ZSt8distanceIPKcENSt15iterator_traitsIT_E15difference_typeES3_S3_
FNDA:0,_ZSt8distanceIPKcENSt15iterator_traitsIT_E15difference_typeES3_S3_
DA:98,0
DA:104,0
DA:98,0
DA:104,0
DA:138,0
DA:141,0
DA:142,0
DA:138,0
DA:141,0
DA:142,0
end_of_record
SF:/usr/include/c++/9/bits/char_traits.h
FN:336,_ZNSt11char_traitsIcE6lengthEPKc
FNDA:0,_ZNSt11char_traitsIcE6lengthEPKc
DA:336,0
DA:342,0
end_of_record
SF:/usr/include/c++/9/bits/stl_pair.h
FN:229,_ZNSt4pairI3keyiEC2IS0_iLb1EEEv
FNDA:225837,_ZNSt4pairI3keyiEC2IS0_iLb1EEEv
FN:260,_ZNSt4pairI3keyiEC2IS0_iLb1EEERKS0_RKi
FNDA:41202,_ZNSt4pairI3keyiEC2IS0_iLb1EEERKS0_RKi
FN:378,_ZNSt4pairI3keyiEaSERKS1_
FNDA:101196,_ZNSt4pairI3keyiEaSERKS1_
FN:389,_ZNSt4pairI3keyiEaSEOS1_
FNDA:100569000,_ZNSt4pairI3keyiEaSEOS1_
FN:448,_ZSteqI3keyiEbRKSt4pairIT_T0_ES6_
FNDA:19998,_ZSteqI3keyiEbRKSt4pairIT_T0_ES6_
FN:461,_ZStneI3keyiEbRKSt4pairIT_T0_ES6_
FNDA:19998,_ZStneI3keyiEbRKSt4pairIT_T0_ES6_
FN:524,_ZSt9make_pairIRK3keyRKiESt4pairINSt17__decay_and_stripIT_E6__typeENS6_IT0_E6__typeEEOS7_OSA_
FNDA:41202,_ZSt9make_pairIRK3keyRKiESt4pairINSt17__decay_and_stripIT_E6__typeENS6_IT0_E6__typeEEOS7_OSA_
DA:229,225837
DA:230,225837
DA:260,41202
DA:261,41202
DA:378,101196
DA:383,101196
DA:384,101196
DA:385,101196
DA:389,100569000
DA:396,100569000
DA:397,100569000
DA:398,100569000
DA:448,19998
DA:449,19998
DA:461,19998
DA:462,19998
DA:524,41202
DA:529,41202
end_of_record
SF:/usr/include/gtest/internal/gtest-internal.h
FN:442,_ZN7testing8internal15TestFactoryBaseD0Ev
FNDA:0,_ZN7testing8internal15TestFactoryBaseD0Ev
FN:442,_ZN7testing8internal15TestFactoryBaseD2Ev
FNDA:5,_ZN7testing8internal15TestFactoryBaseD2Ev
FN:449,_ZN7testing8internal15TestFactoryBaseC2Ev
FNDA:5,_ZN7testing8internal15TestFactoryBaseC2Ev
FN:460,_ZN7testing8internal15TestFactoryImplI17index1_first_TestE10CreateTestEv
FNDA:1,_ZN7testing8internal15TestFactoryImplI17index1_first_TestE10CreateTestEv
FN:460,_ZN7testing8internal15TestFactoryImplI17index2_first_TestE10CreateTestEv
FNDA:1,_ZN7testing8internal15TestFactoryImplI17index2_first_TestE10CreateTestEv
FN:460,_ZN7testing8internal15TestFactoryImplI17index3_first_TestE10CreateTestEv
FNDA:1,_ZN7testing8internal15TestFactoryImplI17index3_first_TestE10CreateTestEv
FN:460,_ZN7testing8internal15TestFactoryImplI20adressing_first_TestE10CreateTestEv
FNDA:1,_ZN7testing8internal15TestFactoryImplI20adressing_first_TestE10CreateTestEv
FN:460,_ZN7testing8internal15TestFactoryImplI15move_first_TestE10CreateTestEv
FNDA:1,_ZN7testing8internal15TestFactoryImplI15move_first_TestE10CreateTestEv
FN:481,_ZN7testing8internal12CodeLocationC2ERKNSt7__cxx1112basic_stringIcSt11char_traitsIcESaIcEEEi
FNDA:5,_ZN7testing8internal12CodeLocationC2ERKNSt7__cxx1112basic_stringIcSt11char_traitsIcESaIcEEEi
FN:494,_ZN7testing8internal19GetNotDefaultOrNullEPFvvES2_
FNDA:20,_ZN7testing8internal19GetNotDefaultOrNullEPFvvES2_
FN:509,_ZN7testing8internal16SuiteApiResolverINS_4TestEE19GetSetUpCaseOrSuiteEPKci
FNDA:5,_ZN7testing8internal16SuiteApiResolverINS_4TestEE19GetSetUpCaseOrSuiteEPKci
FN:524,_ZN7testing8internal16SuiteApiResolverINS_4TestEE22GetTearDownCaseOrSuiteEPKci
FNDA:5,_ZN7testing8internal16SuiteApiResolverINS_4TestEE22GetTearDownCaseOrSuiteEPKci
DA:442,0
DA:442,5
DA:449,5
DA:460,1
DA:460,1
DA:460,1
DA:460,1
DA:460,1
DA:481,5
DA:482,5
DA:494,20
DA:496,20
DA:509,5
DA:512,5
DA:514,5
DA:516,5
DA:519,0
DA:521,5
DA:524,5
DA:527,5
DA:529,5
DA:531,5
DA:534,0
DA:536,5
end_of_record
SF:/usr/include/gtest/gtest-printers.h
FN:260,_ZN16testing_internal26DefaultPrintNonContainerToIiEEvRKT_PSo
FNDA:0,_ZN16testing_internal26DefaultPrintNonContainerToIiEEvRKT_PSo
FN:260,_ZN16testing_internal26DefaultPrintNonContainerToImEEvRKT_PSo
FNDA:0,_ZN16testing_internal26DefaultPrintNonContainerToImEEvRKT_PSo
FN:313,_ZN7testing8internal19FormatForComparisonIiiE6FormatB5cxx11ERKi
FNDA:0,_ZN7testing8internal19FormatForComparisonIiiE6FormatB5cxx11ERKi
FN:313,_ZN7testing8internal19FormatForComparisonImiE6FormatB5cxx11ERKm
FNDA:0,_ZN7testing8internal19FormatForComparisonImiE6FormatB5cxx11ERKm
FN:313,_ZN7testing8internal19FormatForComparisonIimE6FormatB5cxx11ERKi
FNDA:0,_ZN7testing8internal19FormatForComparisonIimE6FormatB5cxx11ERKi
FN:377,_ZN7testing8internal33FormatForComparisonFailureMessageIiiEENSt7__cxx1112basic_stringIcSt11char_traitsIcESaIcEEERKT_RKT0_
FNDA:0,_ZN7testing8internal33FormatForComparisonFailureMessageIiiEENSt7__cxx1112basic_stringIcSt11char_traitsIcESaIcEEERKT_RKT0_
FN:377,_ZN7testing8internal33FormatForComparisonFailureMessageImiEENSt7__cxx1112basic_stringIcSt11char_traitsIcESaIcEEERKT_RKT0_
FNDA:0,_ZN7testing8internal33FormatForComparisonFailureMessageImiEENSt7__cxx1112basic_stringIcSt11char_traitsIcESaIcEEERKT_RKT0_
FN:377,_ZN7testing8internal33FormatForComparisonFailureMessageIimEENSt7__cxx1112basic_stringIcSt11char_traitsIcESaIcEEERKT_RKT0_
FNDA:0,_ZN7testing8internal33FormatForComparisonFailureMessageIimEENSt7__cxx1112basic_stringIcSt11char_traitsIcESaIcEEERKT_RKT0_
FN:466,_ZN7testing8internal14DefaultPrintToIiEEvNS0_15WrapPrinterTypeILNS0_18DefaultPrinterTypeE3EEERKT_PSo
FNDA:0,_ZN7testing8internal14DefaultPrintToIiEEvNS0_15WrapPrinterTypeILNS0_18DefaultPrinterTypeE3EEERKT_PSo
FN:466,_ZN7testing8internal14DefaultPrintToImEEvNS0_15WrapPrinterTypeILNS0_18DefaultPrinterTypeE3EEERKT_PSo
FNDA:0,_ZN7testing8internal14DefaultPrintToImEEvNS0_15WrapPrinterTypeILNS0_18DefaultPrinterTypeE3EEERKT_PSo
FN:483,_ZN7testing8internal7PrintToIiEEvRKT_PSo
FNDA:0,_ZN7testing8internal7PrintToIiEEvRKT_PSo
FN:483,_ZN7testing8internal7PrintToImEEvRKT_PSo
FNDA:0,_ZN7testing8internal7PrintToImEEvRKT_PSo
FN:670,_ZN7testing8internal16UniversalPrinterIiE5PrintERKiPSo
FNDA:0,_ZN7testing8internal16UniversalPrinterIiE5PrintERKiPSo
FN:670,_ZN7testing8internal16UniversalPrinterImE5PrintERKmPSo
FNDA:0,_ZN7testing8internal16UniversalPrinterImE5PrintERKmPSo
FN:796,_ZN7testing8internal21UniversalTersePrinterImE5PrintERKmPSo
FNDA:0,_ZN7testing8internal21UniversalTersePrinterImE5PrintERKmPSo
FN:796,_ZN7testing8internal21UniversalTersePrinterIiE5PrintERKiPSo
FNDA:0,_ZN7testing8internal21UniversalTersePrinterIiE5PrintERKiPSo
FN:865,_ZN7testing8internal14UniversalPrintImEEvRKT_PSo
FNDA:0,_ZN7testing8internal14UniversalPrintImEEvRKT_PSo
FN:865,_ZN7testing8internal14UniversalPrintIiEEvRKT_PSo
FNDA:0,_ZN7testing8internal14UniversalPrintIiEEvRKT_PSo
FN:915,_ZN7testing13PrintToStringImEENSt7__cxx1112basic_stringIcSt11char_traitsIcESaIcEEERKT_
FNDA:0,_ZN7testing13PrintToStringImEENSt7__cxx1112basic_stringIcSt11char_traitsIcESaIcEEERKT_
FN:915,_ZN7testing13PrintToStringIiEENSt7__cxx1112basic_stringIcSt11char_traitsIcESaIcEEERKT_
FNDA:0,_ZN7testing13PrintToStringIiEENSt7__cxx1112basic_stringIcSt11char_traitsIcESaIcEEERKT_
DA:260,0
DA:287,0
DA:288,0
DA:260,0
DA:287,0
DA:288,0
DA:313,0
DA:314,0
DA:313,0
DA:314,0
DA:313,0
DA:314,0
DA:377,0
DA:379,0
DA:377,0
DA:379,0
DA:377,0
DA:379,0
DA:466,0
DA:468,0
DA:469,0
DA:466,0
DA:468,0
DA:469,0
DA:483,0
DA:503,0
DA:514,0
DA:483,0
DA:503,0
DA:514,0
DA:670,0
DA:679,0
DA:680,0
DA:670,0
DA:679,0
DA:680,0
DA:796,0
DA:797,0
DA:798,0
DA:796,0
DA:797,0
DA:798,0
DA:865,0
DA:869,0
DA:870,0
DA:865,0
DA:869,0
DA:870,0
DA:915,0
DA:916,0
DA:917,0
DA:918,0
DA:915,0
DA:916,0
DA:917,0
DA:918,0
end_of_record
SF:/usr/include/c++/9/ext/alloc_traits.h
FN:97,_ZN9__gnu_cxx14__alloc_traitsISaIcEcE17_S_select_on_copyERKS1_
FNDA:0,_ZN9__gnu_cxx14__alloc_traitsISaIcEcE17_S_select_on_copyERKS1_
DA:97,0
DA:98,0
end_of_record
SF:/usr/include/c++/9/bits/basic_string.h
FN:247,_ZNSt7__cxx1112basic_stringIcSt11char_traitsIcESaIcEE16_M_construct_auxIPcEEvT_S7_St12__false_type
FNDA:0,_ZNSt7__cxx1112basic_stringIcSt11char_traitsIcESaIcEE16_M_construct_auxIPcEEvT_S7_St12__false_type
FN:247,_ZNSt7__cxx1112basic_stringIcSt11char_traitsIcESaIcEE16_M_construct_auxIPKcEEvT_S8_St12__false_type
FNDA:0,_ZNSt7__cxx1112basic_stringIcSt11char_traitsIcESaIcEE16_M_construct_auxIPKcEEvT_S8_St12__false_type
FN:267,_ZNSt7__cxx1112basic_stringIcSt11char_traitsIcESaIcEE12_M_constructIPcEEvT_S7_
FNDA:0,_ZNSt7__cxx1112basic_stringIcSt11char_traitsIcESaIcEE12_M_constructIPcEEvT_S7_
FN:267,_ZNSt7__cxx1112basic_stringIcSt11char_traitsIcESaIcEE12_M_constructIPKcEEvT_S8_
FNDA:0,_ZNSt7__cxx1112basic_stringIcSt11char_traitsIcESaIcEE12_M_constructIPKcEEvT_S8_
DA:247,0
DA:251,0
DA:252,0
DA:247,0
DA:251,0
DA:252,0
DA:267,0
DA:270,0
DA:271,0
DA:267,0
DA:270,0
DA:271,0
end_of_record
SF:/usr/include/gtest/gtest-message.h
end_of_record
SF:/usr/include/gtest/internal/gtest-port.h
FN:957,_ZN7testing8internal8GTestLog9GetStreamEv
FNDA:0,_ZN7testing8internal8GTestLog9GetStreamEv
DA:957,0
end_of_record
SF:/home/macsia/Project_cpp/21201_polukhin/res/mine_vector.hpp
FN:8,_ZN11mine_vectorISt4pairI3keyiEEC2Em
FNDA:10,_ZN11mine_vectorISt4pairI3keyiEEC2Em
FN:12,_ZN11mine_vectorISt4pairI3keyiEEC2ERKS3_
FNDA:5,_ZN11mine_vectorISt4pairI3keyiEEC2ERKS3_
FN:17,_ZN11mine_vectorISt4pairI3keyiEED2Ev
FNDA:15,_ZN11mine_vectorISt4pairI3keyiEED2Ev
FN:20,_ZN11mine_vectorISt4pairI3keyiEEaSERKS3_
FNDA:1,_ZN11mine_vectorISt4pairI3keyiEEaSERKS3_
FN:25,_ZN11mine_vectorISt4pairI3keyiEEaSEOS3_
FNDA:7,_ZN11mine_vectorISt4pairI3keyiEEaSEOS3_
FN:32,_ZNK11mine_vectorISt4pairI3keyiEEixEm
FNDA:2387670,_ZNK11mine_vectorISt4pairI3keyiEEixEm
FN:35,_ZNK11mine_vectorISt4pairI3keyiEE5emptyEv
FNDA:200119,_ZNK11mine_vectorISt4pairI3keyiEE5emptyEv
FN:38,_ZNK11mine_vectorISt4pairI3keyiEE4sizeEv
FNDA:256387,_ZNK11mine_vectorISt4pairI3keyiEE4sizeEv
FN:41,_ZN11mine_vectorISt4pairI3keyiEE6resizeEm
FNDA:51215,_ZN11mine_vectorISt4pairI3keyiEE6resizeEm
FN:56,_ZN11mine_vectorISt4pairI3keyiEE5clearEv
FNDA:4,_ZN11mine_vectorISt4pairI3keyiEE5clearEv
FN:59,_ZN11mine_vectorISt4pairI3keyiEE5eraseEm
FNDA:10001,_ZN11mine_vectorISt4pairI3keyiEE5eraseEm
FN:65,_ZN11mine_vectorISt4pairI3keyiEE6insertEmS2_
FNDA:41202,_ZN11mine_vectorISt4pairI3keyiEE6insertEmS2_
FN:72,_ZeqRK11mine_vectorISt4pairI3keyiEES5_
FNDA:9,_ZeqRK11mine_vectorISt4pairI3keyiEES5_
DA:8,10
DA:9,10
DA:10,10
DA:11,10
DA:12,5
DA:13,50000
DA:14,5
DA:15,5
DA:16,5
DA:17,15
DA:18,15
DA:19,15
DA:20,1
DA:21,1
DA:22,1
DA:23,1
DA:25,7
DA:26,7
DA:27,3014
DA:28,3007
DA:30,7
DA:32,2387670
DA:33,2387670
DA:35,200119
DA:36,200119
DA:38,256387
DA:39,256387
DA:41,51215
DA:42,51215
DA:43,175937
DA:44,75745
DA:45,75650
DA:47,95
DA:48,95
DA:49,95
DA:51,51215
DA:52,51215
DA:56,4
DA:57,4
DA:58,4
DA:59,10001
DA:60,49995000
DA:61,49985000
DA:63,10001
DA:64,10001
DA:65,41202
DA:66,41202
DA:67,50546700
DA:68,50505500
DA:70,41202
DA:71,41202
DA:72,9
DA:73,9
DA:74,20000
DA:75,19998
DA:77,2
end_of_record
SF:/usr/include/c++/9/ext/new_allocator.h
FN:80,_ZN9__gnu_cxx13new_allocatorIcEC2Ev
FNDA:0,_ZN9__gnu_cxx13new_allocatorIcEC2Ev
FN:83,_ZN9__gnu_cxx13new_allocatorIcEC2ERKS1_
FNDA:0,_ZN9__gnu_cxx13new_allocatorIcEC2ERKS1_
FN:89,_ZN9__gnu_cxx13new_allocatorIcED2Ev
FNDA:0,_ZN9__gnu_cxx13new_allocatorIcED2Ev
DA:80,0
DA:83,0
DA:89,0
end_of_record
SF:/usr/include/c++/9/iostream
end_of_record
SF:/usr/include/c++/9/bits/stl_iterator_base_types.h
FN:205,_ZSt19__iterator_categoryIPcENSt15iterator_traitsIT_E17iterator_categoryERKS2_
FNDA:0,_ZSt19__iterator_categoryIPcENSt15iterator_traitsIT_E17iterator_categoryERKS2_
FN:205,_ZSt19__iterator_categoryIPKcENSt15iterator_traitsIT_E17iterator_categoryERKS3_
FNDA:0,_ZSt19__iterator_categoryIPKcENSt15iterator_traitsIT_E17iterator_categoryERKS3_
DA:205,0
DA:206,0
DA:205,0
DA:206,0
end_of_record
SF:/usr/include/c++/9/bits/move.h
FN:74,_ZSt7forwardIiEOT_RNSt16remove_referenceIS0_E4typeE
FNDA:100569000,_ZSt7forwardIiEOT_RNSt16remove_referenceIS0_E4typeE
FN:74,_ZSt7forwardI3keyEOT_RNSt16remove_referenceIS1_E4typeE
FNDA:100569000,_ZSt7forwardI3keyEOT_RNSt16remove_referenceIS1_E4typeE
FN:74,_ZSt7forwardIRKiEOT_RNSt16remove_referenceIS2_E4typeE
FNDA:41202,_ZSt7forwardIRKiEOT_RNSt16remove_referenceIS2_E4typeE
FN:74,_ZSt7forwardIRK3keyEOT_RNSt16remove_referenceIS3_E4typeE
FNDA:41202,_ZSt7forwardIRK3keyEOT_RNSt16remove_referenceIS3_E4typeE
FN:99,_ZSt4moveIRSt4pairI3keyiEEONSt16remove_referenceIT_E4typeEOS5_
FNDA:100569000,_ZSt4moveIRSt4pairI3keyiEEONSt16remove_referenceIT_E4typeEOS5_
FN:99,_ZSt4moveIR11mine_vectorISt4pairI3keyiEEEONSt16remove_referenceIT_E4typeEOS7_
FNDA:7,_ZSt4moveIR11mine_vectorISt4pairI3keyiEEEONSt16remove_referenceIT_E4typeEOS7_
FN:99,_ZSt4moveIRPNSt7__cxx1112basic_stringIcSt11char_traitsIcESaIcEEEEONSt16remove_referenceIT_E4typeEOS9_
FNDA:0,_ZSt4moveIRPNSt7__cxx1112basic_stringIcSt11char_traitsIcESaIcEEEEONSt16remove_referenceIT_E4typeEOS9_
FN:99,_ZSt4moveIRPNSt7__cxx1118basic_stringstreamIcSt11char_traitsIcESaIcEEEEONSt16remove_referenceIT_E4typeEOS9_
FNDA:0,_ZSt4moveIRPNSt7__cxx1118basic_stringstreamIcSt11char_traitsIcESaIcEEEEONSt16remove_referenceIT_E4typeEOS9_
FN:99,_ZSt4moveIRSaIcEEONSt16remove_referenceIT_E4typeEOS3_
FNDA:0,_ZSt4moveIRSaIcEEONSt16remove_referenceIT_E4typeEOS3_
FN:99,_ZSt4moveIR7FlatMapI3keyiEEONSt16remove_referenceIT_E4typeEOS5_
FNDA:7,_ZSt4moveIR7FlatMapI3keyiEEONSt16remove_referenceIT_E4typeEOS5_
DA:74,100569000
DA:75,100569000
DA:74,100569000
DA:75,100569000
DA:74,41202
DA:75,41202
DA:74,41202
DA:75,41202
DA:99,100569000
DA:100,100569000
DA:99,7
DA:100,7
DA:99,0
DA:100,0
DA:99,0
DA:100,0
DA:99,0
DA:100,0
DA:99,7
DA:100,7
end_of_record
SF:/usr/include/c++/9/bits/stl_algobase.h
FN:198,_ZSt3minImERKT_S2_S2_
FNDA:75745,_ZSt3minImERKT_S2_S2_
FN:280,_ZSt12__niter_baseIPSt4pairI3keyiEET_S4_
FNDA:18,_ZSt12__niter_baseIPSt4pairI3keyiEET_S4_
FN:295,_ZSt12__niter_wrapIPSt4pairI3keyiEET_RKS4_S4_
FNDA:6,_ZSt12__niter_wrapIPSt4pairI3keyiEET_RKS4_S4_
FN:337,_ZNSt11__copy_moveILb0ELb0ESt26random_access_iterator_tagE8__copy_mIPSt4pairI3keyiES6_EET0_T_S8_S7_
FNDA:6,_ZNSt11__copy_moveILb0ELb0ESt26random_access_iterator_tagE8__copy_mIPSt4pairI3keyiES6_EET0_T_S8_S7_
FN:393,_ZSt13__copy_move_aILb0EPSt4pairI3keyiES3_ET1_T0_S5_S4_
FNDA:6,_ZSt13__copy_move_aILb0EPSt4pairI3keyiES3_ET1_T0_S5_S4_
FN:438,_ZSt14__copy_move_a2ILb0EPSt4pairI3keyiES3_ET1_T0_S5_S4_
FNDA:6,_ZSt14__copy_move_a2ILb0EPSt4pairI3keyiES3_ET1_T0_S5_S4_
FN:465,_ZSt4copyIPSt4pairI3keyiES3_ET0_T_S5_S4_
FNDA:6,_ZSt4copyIPSt4pairI3keyiES3_ET0_T_S5_S4_
DA:198,75745
DA:203,75745
DA:204,67145
DA:205,8600
DA:280,18
DA:282,18
DA:295,6
DA:296,6
DA:337,6
DA:340,60000
DA:342,59994
DA:343,59994
DA:344,59994
DA:346,6
DA:393,6
DA:398,6
DA:404,6
DA:438,6
DA:440,6
DA:443,6
DA:465,6
DA:474,6
end_of_record
SF:/usr/include/gtest/gtest.h
FN:293,_ZN7testing15AssertionResultC2IiEERKT_PNSt9enable_ifIXntsrSt14is_convertibleIS2_S0_E5valueEvE4typeE
FNDA:201,_ZN7testing15AssertionResultC2IiEERKT_PNSt9enable_ifIXntsrSt14is_convertibleIS2_S0_E5valueEvE4typeE
FN:293,_ZN7testing15AssertionResultC2IbEERKT_PNSt9enable_ifIXntsrSt14is_convertibleIS2_S0_E5valueEvE4typeE
FNDA:94904,_ZN7testing15AssertionResultC2IbEERKT_PNSt9enable_ifIXntsrSt14is_convertibleIS2_S0_E5valueEvE4typeE
FN:312,_ZNK7testing15AssertionResultcvbEv
FNDA:145117,_ZNK7testing15AssertionResultcvbEv
FN:321,_ZNK7testing15AssertionResult7messageEv
FNDA:0,_ZNK7testing15AssertionResult7messageEv
FN:325,_ZNK7testing15AssertionResult15failure_messageEv
FNDA:0,_ZNK7testing15AssertionResult15failure_messageEv
FN:417,_ZN7testing4Test14SetUpTestSuiteEv
FNDA:0,_ZN7testing4Test14SetUpTestSuiteEv
FN:427,_ZN7testing4Test17TearDownTestSuiteEv
FNDA:0,_ZN7testing4Test17TearDownTestSuiteEv
FN:431,_ZN7testing4Test16TearDownTestCaseEv
FNDA:0,_ZN7testing4Test16TearDownTestCaseEv
FN:432,_ZN7testing4Test13SetUpTestCaseEv
FNDA:0,_ZN7testing4Test13SetUpTestCaseEv
FN:513,_ZN7testing4Test5SetupEv
FNDA:0,_ZN7testing4Test5SetupEv
FN:1504,_ZN7testing8internal18CmpHelperEQFailureIiiEENS_15AssertionResultEPKcS4_RKT_RKT0_
FNDA:0,_ZN7testing8internal18CmpHelperEQFailureIiiEENS_15AssertionResultEPKcS4_RKT_RKT0_
FN:1504,_ZN7testing8internal18CmpHelperEQFailureImiEENS_15AssertionResultEPKcS4_RKT_RKT0_
FNDA:0,_ZN7testing8internal18CmpHelperEQFailureImiEENS_15AssertionResultEPKcS4_RKT_RKT0_
FN:1523,_ZN7testing8internal11CmpHelperEQIiiEENS_15AssertionResultEPKcS4_RKT_RKT0_
FNDA:20004,_ZN7testing8internal11CmpHelperEQIiiEENS_15AssertionResultEPKcS4_RKT_RKT0_
FN:1523,_ZN7testing8internal11CmpHelperEQImiEENS_15AssertionResultEPKcS4_RKT_RKT0_
FNDA:30008,_ZN7testing8internal11CmpHelperEQImiEENS_15AssertionResultEPKcS4_RKT_RKT0_
FN:1551,_ZN7testing8internal8EqHelper7CompareIiiLPv0EEENS_15AssertionResultEPKcS6_RKT_RKT0_
FNDA:20004,_ZN7testing8internal8EqHelper7CompareIiiLPv0EEENS_15AssertionResultEPKcS6_RKT_RKT0_
FN:1551,_ZN7testing8internal8EqHelper7CompareImiLPv0EEENS_15AssertionResultEPKcS6_RKT_RKT0_
FNDA:30008,_ZN7testing8internal8EqHelper7CompareImiLPv0EEENS_15AssertionResultEPKcS6_RKT_RKT0_
FN:2472,_Z13RUN_ALL_TESTSv
FNDA:1,_Z13RUN_ALL_TESTSv
DA:293,201
DA:299,201
DA:293,94904
DA:299,94904
DA:312,145117
DA:321,0
DA:322,0
DA:325,0
DA:417,0
DA:427,0
DA:431,0
DA:432,0
DA:513,0
DA:1504,0
DA:1511,0
DA:1504,0
DA:1511,0
DA:1523,30008
DA:1527,30008
DA:1528,30008
DA:1531,0
DA:1523,20004
DA:1527,20004
DA:1528,20004
DA:1531,0
DA:1551,30008
DA:1554,30008
DA:1551,20004
DA:1554,20004
DA:2472,1
DA:2473,1
end_of_record
SF:/home/macsia/Project_cpp/21201_polukhin/FlatMap/Test/Tests.cpp
FN:7,_ZN3keyC2Ev
FNDA:225837,_ZN3keyC2Ev
FN:8,_ZN3keyC2Ei
FNDA:125103,_ZN3keyC2Ei
FN:9,_Zlt3keyS_
FNDA:1624020,_Zlt3keyS_
FN:13,_Zeq3keyS_
FNDA:642645,_Zeq3keyS_
FN:17,_Zne3keyS_
FNDA:30004,_Zne3keyS_
FN:23,_Z2f17FlatMapI3keyiE
FNDA:3,_Z2f17FlatMapI3keyiE
FN:32,_ZN17index1_first_TestC2Ev
FNDA:1,_ZN17index1_first_TestC2Ev
FN:32,_ZN17index1_first_Test8TestBodyEv
FNDA:1,_ZN17index1_first_Test8TestBodyEv
FN:55,_ZN17index2_first_TestC2Ev
FNDA:1,_ZN17index2_first_TestC2Ev
FN:55,_ZN17index2_first_Test8TestBodyEv
FNDA:1,_ZN17index2_first_Test8TestBodyEv
FN:71,_ZN17index3_first_TestC2Ev
FNDA:1,_ZN17index3_first_TestC2Ev
FN:71,_ZN17index3_first_Test8TestBodyEv
FNDA:1,_ZN17index3_first_Test8TestBodyEv
FN:88,_ZN20adressing_first_TestC2Ev
FNDA:1,_ZN20adressing_first_TestC2Ev
FN:88,_ZN20adressing_first_Test8TestBodyEv
FNDA:1,_ZN20adressing_first_Test8TestBodyEv
FN:118,_ZN15move_first_TestC2Ev
FNDA:1,_ZN15move_first_TestC2Ev
FN:118,_ZN15move_first_Test8TestBodyEv
FNDA:1,_ZN15move_first_Test8TestBodyEv
FN:167,main
FNDA:1,main
DA:7,225837
DA:8,125103
DA:9,1624020
DA:11,1624020
DA:13,642645
DA:15,642645
DA:17,30004
DA:19,30004
DA:23,3
DA:25,3
DA:26,3
DA:27,3
DA:28,3
DA:29,3
DA:30,3
DA:32,1
DA:34,2
DA:35,10000
DA:37,9999
DA:39,1
DA:40,2
DA:41,1
DA:42,2
DA:43,1
DA:44,1
DA:45,1
DA:46,1
DA:47,1
DA:48,1
DA:49,1
DA:50,1
DA:51,1
DA:52,1
DA:53,1
DA:32,1
DA:55,1
DA:57,2
DA:58,1
DA:60,91
DA:62,90
DA:64,1
DA:65,1
DA:66,1
DA:67,1
DA:68,1
DA:69,1
DA:55,1
DA:71,1
DA:73,2
DA:74,10000
DA:76,9999
DA:77,9999
DA:78,9999
DA:80,10000
DA:82,9999
DA:83,9999
DA:84,9999
DA:86,1
DA:71,1
DA:88,1
DA:90,2
DA:91,10000
DA:93,9999
DA:94,9999
DA:95,9999
DA:96,9999
DA:98,2
DA:99,1
DA:100,10000
DA:102,9999
DA:105,1
DA:106,10001
DA:108,10000
DA:109,10000
DA:111,1
DA:112,1
DA:113,1
DA:114,1
DA:115,1
DA:116,1
DA:88,1
DA:118,1
DA:120,2
DA:121,1
DA:122,202
DA:124,201
DA:125,201
DA:127,202
DA:129,201
DA:131,2
DA:132,1002
DA:134,1001
DA:136,1002
DA:138,1001
DA:140,1
DA:141,202
DA:143,201
DA:145,1002
DA:147,1001
DA:149,1
DA:150,202
DA:152,201
DA:154,1002
DA:156,1001
DA:158,1
DA:159,1
DA:160,2
DA:161,202
DA:163,201
DA:165,1
DA:118,1
DA:167,1
DA:169,1
DA:170,1
end_of_record
SF:/usr/include/c++/9/ext/type_traits.h
FN:152,_ZN9__gnu_cxx17__is_null_pointerIcEEbPT_
FNDA:0,_ZN9__gnu_cxx17__is_null_pointerIcEEbPT_
FN:152,_ZN9__gnu_cxx17__is_null_pointerIKcEEbPT_
FNDA:0,_ZN9__gnu_cxx17__is_null_pointerIKcEEbPT_
DA:152,0
DA:153,0
DA:152,0
DA:153,0
end_of_record
SF:/usr/include/c++/9/bits/unique_ptr.h
FN:75,_ZNKSt14default_deleteINSt7__cxx1112basic_stringIcSt11char_traitsIcESaIcEEEEclEPS5_
FNDA:0,_ZNKSt14default_deleteINSt7__cxx1112basic_stringIcSt11char_traitsIcESaIcEEEEclEPS5_
FN:75,_ZNKSt14default_deleteINSt7__cxx1118basic_stringstreamIcSt11char_traitsIcESaIcEEEEclEPS5_
FNDA:0,_ZNKSt14default_deleteINSt7__cxx1118basic_stringstreamIcSt11char_traitsIcESaIcEEEEclEPS5_
FN:146,_ZNSt15__uniq_ptr_implINSt7__cxx1112basic_stringIcSt11char_traitsIcESaIcEEESt14default_deleteIS5_EEC2Ev
FNDA:95105,_ZNSt15__uniq_ptr_implINSt7__cxx1112basic_stringIcSt11char_traitsIcESaIcEEESt14default_deleteIS5_EEC2Ev
FN:153,_ZNSt15__uniq_ptr_implINSt7__cxx1112basic_stringIcSt11char_traitsIcESaIcEEESt14default_deleteIS5_EE6_M_ptrEv
FNDA:145117,_ZNSt15__uniq_ptr_implINSt7__cxx1112basic_stringIcSt11char_traitsIcESaIcEEESt14default_deleteIS5_EE6_M_ptrEv
FN:153,_ZNSt15__uniq_ptr_implINSt7__cxx1118basic_stringstreamIcSt11char_traitsIcESaIcEEESt14default_deleteIS5_EE6_M_ptrEv
FNDA:0,_ZNSt15__uniq_ptr_implINSt7__cxx1118basic_stringstreamIcSt11char_traitsIcESaIcEEESt14default_deleteIS5_EE6_M_ptrEv
FN:154,_ZNKSt15__uniq_ptr_implINSt7__cxx1112basic_stringIcSt11char_traitsIcESaIcEEESt14default_deleteIS5_EE6_M_ptrEv
FNDA:0,_ZNKSt15__uniq_ptr_implINSt7__cxx1112basic_stringIcSt11char_traitsIcESaIcEEESt14default_deleteIS5_EE6_M_ptrEv
FN:155,_ZNSt15__uniq_ptr_implINSt7__cxx1112basic_stringIcSt11char_traitsIcESaIcEEESt14default_deleteIS5_EE10_M_deleterEv
FNDA:0,_ZNSt15__uniq_ptr_implINSt7__cxx1112basic_stringIcSt11char_traitsIcESaIcEEESt14default_deleteIS5_EE10_M_deleterEv
FN:155,_ZNSt15__uniq_ptr_implINSt7__cxx1118basic_stringstreamIcSt11char_traitsIcESaIcEEESt14default_deleteIS5_EE10_M_deleterEv
FNDA:0,_ZNSt15__uniq_ptr_implINSt7__cxx1118basic_stringstreamIcSt11char_traitsIcESaIcEEESt14default_deleteIS5_EE10_M_deleterEv
FN:199,_ZNSt10unique_ptrINSt7__cxx1112basic_stringIcSt11char_traitsIcESaIcEEESt14default_deleteIS5_EEC2IS7_vEEv
FNDA:95105,_ZNSt10unique_ptrINSt7__cxx1112basic_stringIcSt11char_traitsIcESaIcEEESt14default_deleteIS5_EEC2IS7_vEEv
FN:286,_ZNSt10unique_ptrINSt7__cxx1112basic_stringIcSt11char_traitsIcESaIcEEESt14default_deleteIS5_EED2Ev
FNDA:145117,_ZNSt10unique_ptrINSt7__cxx1112basic_stringIcSt11char_traitsIcESaIcEEESt14default_deleteIS5_EED2Ev
FN:286,_ZNSt10unique_ptrINSt7__cxx1118basic_stringstreamIcSt11char_traitsIcESaIcEEESt14default_deleteIS5_EED2Ev
FNDA:0,_ZNSt10unique_ptrINSt7__cxx1118basic_stringstreamIcSt11char_traitsIcESaIcEEESt14default_deleteIS5_EED2Ev
FN:352,_ZNKSt10unique_ptrINSt7__cxx1112basic_stringIcSt11char_traitsIcESaIcEEESt14default_deleteIS5_EEptEv
FNDA:0,_ZNKSt10unique_ptrINSt7__cxx1112basic_stringIcSt11char_traitsIcESaIcEEESt14default_deleteIS5_EEptEv
FN:360,_ZNKSt10unique_ptrINSt7__cxx1112basic_stringIcSt11char_traitsIcESaIcEEESt14default_deleteIS5_EE3getEv
FNDA:0,_ZNKSt10unique_ptrINSt7__cxx1112basic_stringIcSt11char_traitsIcESaIcEEESt14default_deleteIS5_EE3getEv
FN:365,_ZNSt10unique_ptrINSt7__cxx1112basic_stringIcSt11char_traitsIcESaIcEEESt14default_deleteIS5_EE11get_deleterEv
FNDA:0,_ZNSt10unique_ptrINSt7__cxx1112basic_stringIcSt11char_traitsIcESaIcEEESt14default_deleteIS5_EE11get_deleterEv
FN:365,_ZNSt10unique_ptrINSt7__cxx1118basic_stringstreamIcSt11char_traitsIcESaIcEEESt14default_deleteIS5_EE11get_deleterEv
FNDA:0,_ZNSt10unique_ptrINSt7__cxx1118basic_stringstreamIcSt11char_traitsIcESaIcEEESt14default_deleteIS5_EE11get_deleterEv
DA:75,0
DA:81,0
DA:82,0
DA:75,0
DA:81,0
DA:82,0
DA:146,95105
DA:153,145117
DA:153,0
DA:154,0
DA:155,0
DA:155,0
DA:199,95105
DA:200,95105
DA:201,95105
DA:286,145117
DA:290,145117
DA:291,145117
DA:292,0
DA:293,145117
DA:294,145117
DA:286,0
DA:290,0
DA:291,0
DA:292,0
DA:293,0
DA:294,0
DA:352,0
DA:355,0
DA:360,0
DA:361,0
DA:365,0
DA:366,0
DA:365,0
DA:366,0
end_of_record
SF:/usr/include/c++/9/bits/cpp_type_traits.h
FN:428,_ZSt12__miter_baseIPSt4pairI3keyiEET_S4_
FNDA:12,_ZSt12__miter_baseIPSt4pairI3keyiEET_S4_
DA:428,12
DA:429,12
end_of_record
